
Bootloader_STM32F103C8T6.elf:     file format elf32-littlearm

Sections:
Idx Name          Size      VMA       LMA       File off  Algn
  0 .isr_vector   0000010c  08000000  08000000  00010000  2**0
                  CONTENTS, ALLOC, LOAD, READONLY, DATA
  1 .BootOptions  00000004  20000000  20000000  00030000  2**2
                  ALLOC
  2 .text         00004708  0800010c  0800010c  0001010c  2**2
                  CONTENTS, ALLOC, LOAD, READONLY, CODE
  3 .rodata       00000188  08004814  08004814  00014814  2**0
                  CONTENTS, ALLOC, LOAD, READONLY, DATA
  4 .ARM.extab    00000000  0800499c  0800499c  00020180  2**0
                  CONTENTS
  5 .ARM          00000000  0800499c  0800499c  00020180  2**0
                  CONTENTS
  6 .preinit_array 00000000  0800499c  0800499c  00020180  2**0
                  CONTENTS, ALLOC, LOAD, DATA
  7 .init_array   00000004  0800499c  0800499c  0001499c  2**2
                  CONTENTS, ALLOC, LOAD, DATA
  8 .fini_array   00000004  080049a0  080049a0  000149a0  2**2
                  CONTENTS, ALLOC, LOAD, DATA
  9 .data         0000017c  20000004  080049a4  00020004  2**2
                  CONTENTS, ALLOC, LOAD, DATA
 10 .bss          00001238  20000180  08004b20  00020180  2**3
                  ALLOC
 11 ._user_heap_stack 00000600  200013b8  08004b20  000213b8  2**0
                  ALLOC
 12 .ARM.attributes 00000029  00000000  00000000  00020180  2**0
                  CONTENTS, READONLY
 13 .comment      00000053  00000000  00000000  000201a9  2**0
                  CONTENTS, READONLY
 14 .debug_frame  0000004c  00000000  00000000  000201fc  2**2
                  CONTENTS, READONLY, DEBUGGING, OCTETS

Disassembly of section .text:

0800010c <__do_global_dtors_aux>:
 800010c:	b510      	push	{r4, lr}
 800010e:	4c05      	ldr	r4, [pc, #20]	; (8000124 <__do_global_dtors_aux+0x18>)
 8000110:	7823      	ldrb	r3, [r4, #0]
 8000112:	b933      	cbnz	r3, 8000122 <__do_global_dtors_aux+0x16>
 8000114:	4b04      	ldr	r3, [pc, #16]	; (8000128 <__do_global_dtors_aux+0x1c>)
 8000116:	b113      	cbz	r3, 800011e <__do_global_dtors_aux+0x12>
 8000118:	4804      	ldr	r0, [pc, #16]	; (800012c <__do_global_dtors_aux+0x20>)
 800011a:	f3af 8000 	nop.w
 800011e:	2301      	movs	r3, #1
 8000120:	7023      	strb	r3, [r4, #0]
 8000122:	bd10      	pop	{r4, pc}
 8000124:	20000180 	.word	0x20000180
 8000128:	00000000 	.word	0x00000000
 800012c:	080047fc 	.word	0x080047fc

08000130 <frame_dummy>:
 8000130:	b508      	push	{r3, lr}
 8000132:	4b03      	ldr	r3, [pc, #12]	; (8000140 <frame_dummy+0x10>)
 8000134:	b11b      	cbz	r3, 800013e <frame_dummy+0xe>
 8000136:	4903      	ldr	r1, [pc, #12]	; (8000144 <frame_dummy+0x14>)
 8000138:	4803      	ldr	r0, [pc, #12]	; (8000148 <frame_dummy+0x18>)
 800013a:	f3af 8000 	nop.w
 800013e:	bd08      	pop	{r3, pc}
 8000140:	00000000 	.word	0x00000000
 8000144:	20000184 	.word	0x20000184
 8000148:	080047fc 	.word	0x080047fc

0800014c <__NVIC_SystemReset>:
 800014c:	f3bf 8f4f 	dsb	sy
 8000150:	4905      	ldr	r1, [pc, #20]	; (8000168 <__NVIC_SystemReset+0x1c>)
 8000152:	4b06      	ldr	r3, [pc, #24]	; (800016c <__NVIC_SystemReset+0x20>)
 8000154:	68ca      	ldr	r2, [r1, #12]
 8000156:	f402 62e0 	and.w	r2, r2, #1792	; 0x700
 800015a:	4313      	orrs	r3, r2
 800015c:	60cb      	str	r3, [r1, #12]
 800015e:	f3bf 8f4f 	dsb	sy
 8000162:	bf00      	nop
 8000164:	e7fd      	b.n	8000162 <__NVIC_SystemReset+0x16>
 8000166:	bf00      	nop
 8000168:	e000ed00 	.word	0xe000ed00
 800016c:	05fa0004 	.word	0x05fa0004

08000170 <unlockMemory>:
 8000170:	b508      	push	{r3, lr}
 8000172:	f000 fe1b 	bl	8000dac <HAL_FLASH_Unlock>
 8000176:	b928      	cbnz	r0, 8000184 <unlockMemory+0x14>
 8000178:	f000 fe34 	bl	8000de4 <HAL_FLASH_OB_Unlock>
 800017c:	b938      	cbnz	r0, 800018e <unlockMemory+0x1e>
 800017e:	4b06      	ldr	r3, [pc, #24]	; (8000198 <unlockMemory+0x28>)
 8000180:	7018      	strb	r0, [r3, #0]
 8000182:	bd08      	pop	{r3, pc}
 8000184:	f000 fe24 	bl	8000dd0 <HAL_FLASH_Lock>
 8000188:	2800      	cmp	r0, #0
 800018a:	d1fb      	bne.n	8000184 <unlockMemory+0x14>
 800018c:	e7f1      	b.n	8000172 <unlockMemory+0x2>
 800018e:	f000 fe3b 	bl	8000e08 <HAL_FLASH_OB_Lock>
 8000192:	2800      	cmp	r0, #0
 8000194:	d1fb      	bne.n	800018e <unlockMemory+0x1e>
 8000196:	e7ef      	b.n	8000178 <unlockMemory+0x8>
 8000198:	200003c4 	.word	0x200003c4

0800019c <lockMemory>:
 800019c:	b508      	push	{r3, lr}
 800019e:	f000 fe17 	bl	8000dd0 <HAL_FLASH_Lock>
 80001a2:	b930      	cbnz	r0, 80001b2 <lockMemory+0x16>
 80001a4:	f000 fe30 	bl	8000e08 <HAL_FLASH_OB_Lock>
 80001a8:	b940      	cbnz	r0, 80001bc <lockMemory+0x20>
 80001aa:	2201      	movs	r2, #1
 80001ac:	4b06      	ldr	r3, [pc, #24]	; (80001c8 <lockMemory+0x2c>)
 80001ae:	701a      	strb	r2, [r3, #0]
 80001b0:	bd08      	pop	{r3, pc}
 80001b2:	f000 fdfb 	bl	8000dac <HAL_FLASH_Unlock>
 80001b6:	2800      	cmp	r0, #0
 80001b8:	d1fb      	bne.n	80001b2 <lockMemory+0x16>
 80001ba:	e7f0      	b.n	800019e <lockMemory+0x2>
 80001bc:	f000 fe12 	bl	8000de4 <HAL_FLASH_OB_Unlock>
 80001c0:	2800      	cmp	r0, #0
 80001c2:	d1fb      	bne.n	80001bc <lockMemory+0x20>
 80001c4:	e7ee      	b.n	80001a4 <lockMemory+0x8>
 80001c6:	bf00      	nop
 80001c8:	200003c4 	.word	0x200003c4

080001cc <deinitEverything>:
 80001cc:	b508      	push	{r3, lr}
 80001ce:	f44f 5100 	mov.w	r1, #8192	; 0x2000
 80001d2:	4812      	ldr	r0, [pc, #72]	; (800021c <deinitEverything+0x50>)
 80001d4:	f000 ffea 	bl	80011ac <HAL_GPIO_DeInit>
 80001d8:	f004 f88e 	bl	80042f8 <MX_USB_DEVICE_DeInit>
 80001dc:	4b10      	ldr	r3, [pc, #64]	; (8000220 <deinitEverything+0x54>)
 80001de:	699a      	ldr	r2, [r3, #24]
 80001e0:	f022 0210 	bic.w	r2, r2, #16
 80001e4:	619a      	str	r2, [r3, #24]
 80001e6:	699a      	ldr	r2, [r3, #24]
 80001e8:	f022 0220 	bic.w	r2, r2, #32
 80001ec:	619a      	str	r2, [r3, #24]
 80001ee:	699a      	ldr	r2, [r3, #24]
 80001f0:	f022 0208 	bic.w	r2, r2, #8
 80001f4:	619a      	str	r2, [r3, #24]
 80001f6:	699a      	ldr	r2, [r3, #24]
 80001f8:	f022 0204 	bic.w	r2, r2, #4
 80001fc:	619a      	str	r2, [r3, #24]
 80001fe:	4b09      	ldr	r3, [pc, #36]	; (8000224 <deinitEverything+0x58>)
 8000200:	6818      	ldr	r0, [r3, #0]
 8000202:	f002 faf7 	bl	80027f4 <HAL_UART_DeInit>
 8000206:	f001 ff01 	bl	800200c <HAL_RCC_DeInit>
 800020a:	f000 fc5d 	bl	8000ac8 <HAL_DeInit>
 800020e:	2200      	movs	r2, #0
 8000210:	4b05      	ldr	r3, [pc, #20]	; (8000228 <deinitEverything+0x5c>)
 8000212:	601a      	str	r2, [r3, #0]
 8000214:	605a      	str	r2, [r3, #4]
 8000216:	609a      	str	r2, [r3, #8]
 8000218:	bd08      	pop	{r3, pc}
 800021a:	bf00      	nop
 800021c:	40011000 	.word	0x40011000
 8000220:	40021000 	.word	0x40021000
 8000224:	200003cc 	.word	0x200003cc
 8000228:	e000e010 	.word	0xe000e010

0800022c <flashWord>:
 800022c:	e92d 43f7 	stmdb	sp!, {r0, r1, r2, r4, r5, r6, r7, r8, r9, lr}
 8000230:	4d22      	ldr	r5, [pc, #136]	; (80002bc <flashWord+0x90>)
 8000232:	4607      	mov	r7, r0
 8000234:	782b      	ldrb	r3, [r5, #0]
 8000236:	3b01      	subs	r3, #1
 8000238:	2b01      	cmp	r3, #1
 800023a:	d83c      	bhi.n	80002b6 <flashWord+0x8a>
 800023c:	4b20      	ldr	r3, [pc, #128]	; (80002c0 <flashWord+0x94>)
 800023e:	781b      	ldrb	r3, [r3, #0]
 8000240:	2b00      	cmp	r3, #0
 8000242:	d138      	bne.n	80002b6 <flashWord+0x8a>
 8000244:	f8df 908c 	ldr.w	r9, [pc, #140]	; 80002d4 <flashWord+0xa8>
 8000248:	260a      	movs	r6, #10
 800024a:	46c8      	mov	r8, r9
 800024c:	f8d9 4000 	ldr.w	r4, [r9]
 8000250:	2300      	movs	r3, #0
 8000252:	f104 6400 	add.w	r4, r4, #134217728	; 0x8000000
 8000256:	f504 44a0 	add.w	r4, r4, #20480	; 0x5000
 800025a:	463a      	mov	r2, r7
 800025c:	4621      	mov	r1, r4
 800025e:	2002      	movs	r0, #2
 8000260:	f000 fe06 	bl	8000e70 <HAL_FLASH_Program>
 8000264:	f88d 0007 	strb.w	r0, [sp, #7]
 8000268:	f89d 3007 	ldrb.w	r3, [sp, #7]
 800026c:	b133      	cbz	r3, 800027c <flashWord+0x50>
 800026e:	3e01      	subs	r6, #1
 8000270:	f016 06ff 	ands.w	r6, r6, #255	; 0xff
 8000274:	d002      	beq.n	800027c <flashWord+0x50>
 8000276:	6823      	ldr	r3, [r4, #0]
 8000278:	429f      	cmp	r7, r3
 800027a:	d0e7      	beq.n	800024c <flashWord+0x20>
 800027c:	f89d 3007 	ldrb.w	r3, [sp, #7]
 8000280:	b133      	cbz	r3, 8000290 <flashWord+0x64>
 8000282:	2110      	movs	r1, #16
 8000284:	480f      	ldr	r0, [pc, #60]	; (80002c4 <flashWord+0x98>)
 8000286:	b003      	add	sp, #12
 8000288:	e8bd 43f0 	ldmia.w	sp!, {r4, r5, r6, r7, r8, r9, lr}
 800028c:	f004 b89a 	b.w	80043c4 <CDC_Transmit_FS>
 8000290:	782b      	ldrb	r3, [r5, #0]
 8000292:	210a      	movs	r1, #10
 8000294:	2b02      	cmp	r3, #2
 8000296:	bf1c      	itt	ne
 8000298:	2302      	movne	r3, #2
 800029a:	702b      	strbne	r3, [r5, #0]
 800029c:	f8d8 3000 	ldr.w	r3, [r8]
 80002a0:	4809      	ldr	r0, [pc, #36]	; (80002c8 <flashWord+0x9c>)
 80002a2:	3304      	adds	r3, #4
 80002a4:	f8c8 3000 	str.w	r3, [r8]
 80002a8:	f004 f88c 	bl	80043c4 <CDC_Transmit_FS>
 80002ac:	2200      	movs	r2, #0
 80002ae:	4b07      	ldr	r3, [pc, #28]	; (80002cc <flashWord+0xa0>)
 80002b0:	601a      	str	r2, [r3, #0]
 80002b2:	f7ff ff4b 	bl	800014c <__NVIC_SystemReset>
 80002b6:	212a      	movs	r1, #42	; 0x2a
 80002b8:	4805      	ldr	r0, [pc, #20]	; (80002d0 <flashWord+0xa4>)
 80002ba:	e7e4      	b.n	8000286 <flashWord+0x5a>
 80002bc:	200003c5 	.word	0x200003c5
 80002c0:	200003c4 	.word	0x200003c4
 80002c4:	08004814 	.word	0x08004814
 80002c8:	08004825 	.word	0x08004825
 80002cc:	20000000 	.word	0x20000000
 80002d0:	08004830 	.word	0x08004830
 80002d4:	200003c8 	.word	0x200003c8

080002d8 <errorBlink>:
 80002d8:	4604      	mov	r4, r0
 80002da:	2201      	movs	r2, #1
 80002dc:	f44f 5100 	mov.w	r1, #8192	; 0x2000
 80002e0:	b508      	push	{r3, lr}
 80002e2:	485e      	ldr	r0, [pc, #376]	; (800045c <errorBlink+0x184>)
 80002e4:	f000 ffd0 	bl	8001288 <HAL_GPIO_WritePin>
 80002e8:	4d5c      	ldr	r5, [pc, #368]	; (800045c <errorBlink+0x184>)
 80002ea:	2200      	movs	r2, #0
 80002ec:	f44f 5100 	mov.w	r1, #8192	; 0x2000
 80002f0:	485a      	ldr	r0, [pc, #360]	; (800045c <errorBlink+0x184>)
 80002f2:	f000 ffc9 	bl	8001288 <HAL_GPIO_WritePin>
 80002f6:	20c8      	movs	r0, #200	; 0xc8
 80002f8:	f000 fc3e 	bl	8000b78 <HAL_Delay>
 80002fc:	2201      	movs	r2, #1
 80002fe:	f44f 5100 	mov.w	r1, #8192	; 0x2000
 8000302:	4856      	ldr	r0, [pc, #344]	; (800045c <errorBlink+0x184>)
 8000304:	f000 ffc0 	bl	8001288 <HAL_GPIO_WritePin>
 8000308:	20c8      	movs	r0, #200	; 0xc8
 800030a:	f000 fc35 	bl	8000b78 <HAL_Delay>
 800030e:	2200      	movs	r2, #0
 8000310:	f44f 5100 	mov.w	r1, #8192	; 0x2000
 8000314:	4851      	ldr	r0, [pc, #324]	; (800045c <errorBlink+0x184>)
 8000316:	f000 ffb7 	bl	8001288 <HAL_GPIO_WritePin>
 800031a:	20c8      	movs	r0, #200	; 0xc8
 800031c:	f000 fc2c 	bl	8000b78 <HAL_Delay>
 8000320:	2201      	movs	r2, #1
 8000322:	f44f 5100 	mov.w	r1, #8192	; 0x2000
 8000326:	484d      	ldr	r0, [pc, #308]	; (800045c <errorBlink+0x184>)
 8000328:	f000 ffae 	bl	8001288 <HAL_GPIO_WritePin>
 800032c:	20c8      	movs	r0, #200	; 0xc8
 800032e:	f000 fc23 	bl	8000b78 <HAL_Delay>
 8000332:	2200      	movs	r2, #0
 8000334:	f44f 5100 	mov.w	r1, #8192	; 0x2000
 8000338:	4848      	ldr	r0, [pc, #288]	; (800045c <errorBlink+0x184>)
 800033a:	f000 ffa5 	bl	8001288 <HAL_GPIO_WritePin>
 800033e:	20c8      	movs	r0, #200	; 0xc8
 8000340:	f000 fc1a 	bl	8000b78 <HAL_Delay>
 8000344:	2201      	movs	r2, #1
 8000346:	f44f 5100 	mov.w	r1, #8192	; 0x2000
 800034a:	4844      	ldr	r0, [pc, #272]	; (800045c <errorBlink+0x184>)
 800034c:	f000 ff9c 	bl	8001288 <HAL_GPIO_WritePin>
 8000350:	f44f 70fa 	mov.w	r0, #500	; 0x1f4
 8000354:	f000 fc10 	bl	8000b78 <HAL_Delay>
 8000358:	2200      	movs	r2, #0
 800035a:	f44f 5100 	mov.w	r1, #8192	; 0x2000
 800035e:	483f      	ldr	r0, [pc, #252]	; (800045c <errorBlink+0x184>)
 8000360:	f000 ff92 	bl	8001288 <HAL_GPIO_WritePin>
 8000364:	f44f 7048 	mov.w	r0, #800	; 0x320
 8000368:	f000 fc06 	bl	8000b78 <HAL_Delay>
 800036c:	2201      	movs	r2, #1
 800036e:	f44f 5100 	mov.w	r1, #8192	; 0x2000
 8000372:	483a      	ldr	r0, [pc, #232]	; (800045c <errorBlink+0x184>)
 8000374:	f000 ff88 	bl	8001288 <HAL_GPIO_WritePin>
 8000378:	f44f 70fa 	mov.w	r0, #500	; 0x1f4
 800037c:	f000 fbfc 	bl	8000b78 <HAL_Delay>
 8000380:	2200      	movs	r2, #0
 8000382:	f44f 5100 	mov.w	r1, #8192	; 0x2000
 8000386:	4835      	ldr	r0, [pc, #212]	; (800045c <errorBlink+0x184>)
 8000388:	f000 ff7e 	bl	8001288 <HAL_GPIO_WritePin>
 800038c:	f44f 7048 	mov.w	r0, #800	; 0x320
 8000390:	f000 fbf2 	bl	8000b78 <HAL_Delay>
 8000394:	2201      	movs	r2, #1
 8000396:	f44f 5100 	mov.w	r1, #8192	; 0x2000
 800039a:	4830      	ldr	r0, [pc, #192]	; (800045c <errorBlink+0x184>)
 800039c:	f000 ff74 	bl	8001288 <HAL_GPIO_WritePin>
 80003a0:	f44f 70fa 	mov.w	r0, #500	; 0x1f4
 80003a4:	f000 fbe8 	bl	8000b78 <HAL_Delay>
 80003a8:	2200      	movs	r2, #0
 80003aa:	f44f 5100 	mov.w	r1, #8192	; 0x2000
 80003ae:	482b      	ldr	r0, [pc, #172]	; (800045c <errorBlink+0x184>)
 80003b0:	f000 ff6a 	bl	8001288 <HAL_GPIO_WritePin>
 80003b4:	f44f 7048 	mov.w	r0, #800	; 0x320
 80003b8:	f000 fbde 	bl	8000b78 <HAL_Delay>
 80003bc:	2201      	movs	r2, #1
 80003be:	f44f 5100 	mov.w	r1, #8192	; 0x2000
 80003c2:	4826      	ldr	r0, [pc, #152]	; (800045c <errorBlink+0x184>)
 80003c4:	f000 ff60 	bl	8001288 <HAL_GPIO_WritePin>
 80003c8:	f44f 70fa 	mov.w	r0, #500	; 0x1f4
 80003cc:	f000 fbd4 	bl	8000b78 <HAL_Delay>
 80003d0:	2200      	movs	r2, #0
 80003d2:	f44f 5100 	mov.w	r1, #8192	; 0x2000
 80003d6:	4821      	ldr	r0, [pc, #132]	; (800045c <errorBlink+0x184>)
 80003d8:	f000 ff56 	bl	8001288 <HAL_GPIO_WritePin>
 80003dc:	20c8      	movs	r0, #200	; 0xc8
 80003de:	f000 fbcb 	bl	8000b78 <HAL_Delay>
 80003e2:	2201      	movs	r2, #1
 80003e4:	f44f 5100 	mov.w	r1, #8192	; 0x2000
 80003e8:	481c      	ldr	r0, [pc, #112]	; (800045c <errorBlink+0x184>)
 80003ea:	f000 ff4d 	bl	8001288 <HAL_GPIO_WritePin>
 80003ee:	20c8      	movs	r0, #200	; 0xc8
 80003f0:	f000 fbc2 	bl	8000b78 <HAL_Delay>
 80003f4:	2200      	movs	r2, #0
 80003f6:	f44f 5100 	mov.w	r1, #8192	; 0x2000
 80003fa:	4818      	ldr	r0, [pc, #96]	; (800045c <errorBlink+0x184>)
 80003fc:	f000 ff44 	bl	8001288 <HAL_GPIO_WritePin>
 8000400:	20c8      	movs	r0, #200	; 0xc8
 8000402:	f000 fbb9 	bl	8000b78 <HAL_Delay>
 8000406:	2201      	movs	r2, #1
 8000408:	f44f 5100 	mov.w	r1, #8192	; 0x2000
 800040c:	4813      	ldr	r0, [pc, #76]	; (800045c <errorBlink+0x184>)
 800040e:	f000 ff3b 	bl	8001288 <HAL_GPIO_WritePin>
 8000412:	20c8      	movs	r0, #200	; 0xc8
 8000414:	f000 fbb0 	bl	8000b78 <HAL_Delay>
 8000418:	2200      	movs	r2, #0
 800041a:	f44f 5100 	mov.w	r1, #8192	; 0x2000
 800041e:	480f      	ldr	r0, [pc, #60]	; (800045c <errorBlink+0x184>)
 8000420:	f000 ff32 	bl	8001288 <HAL_GPIO_WritePin>
 8000424:	20c8      	movs	r0, #200	; 0xc8
 8000426:	f000 fba7 	bl	8000b78 <HAL_Delay>
 800042a:	480c      	ldr	r0, [pc, #48]	; (800045c <errorBlink+0x184>)
 800042c:	2201      	movs	r2, #1
 800042e:	f44f 5100 	mov.w	r1, #8192	; 0x2000
 8000432:	f000 ff29 	bl	8001288 <HAL_GPIO_WritePin>
 8000436:	f640 30b8 	movw	r0, #3000	; 0xbb8
 800043a:	f000 fb9d 	bl	8000b78 <HAL_Delay>
 800043e:	2c00      	cmp	r4, #0
 8000440:	f43f af53 	beq.w	80002ea <errorBlink+0x12>
 8000444:	4628      	mov	r0, r5
 8000446:	2201      	movs	r2, #1
 8000448:	f44f 5100 	mov.w	r1, #8192	; 0x2000
 800044c:	f000 ff1c 	bl	8001288 <HAL_GPIO_WritePin>
 8000450:	f640 30b8 	movw	r0, #3000	; 0xbb8
 8000454:	f000 fb90 	bl	8000b78 <HAL_Delay>
 8000458:	e747      	b.n	80002ea <errorBlink+0x12>
 800045a:	bf00      	nop
 800045c:	40011000 	.word	0x40011000

08000460 <jumpToApp>:
 8000460:	b508      	push	{r3, lr}
 8000462:	2201      	movs	r2, #1
 8000464:	f44f 5100 	mov.w	r1, #8192	; 0x2000
 8000468:	4824      	ldr	r0, [pc, #144]	; (80004fc <jumpToApp+0x9c>)
 800046a:	f000 ff0d 	bl	8001288 <HAL_GPIO_WritePin>
 800046e:	2032      	movs	r0, #50	; 0x32
 8000470:	f000 fb82 	bl	8000b78 <HAL_Delay>
 8000474:	2200      	movs	r2, #0
 8000476:	f44f 5100 	mov.w	r1, #8192	; 0x2000
 800047a:	4820      	ldr	r0, [pc, #128]	; (80004fc <jumpToApp+0x9c>)
 800047c:	f000 ff04 	bl	8001288 <HAL_GPIO_WritePin>
 8000480:	2032      	movs	r0, #50	; 0x32
 8000482:	f000 fb79 	bl	8000b78 <HAL_Delay>
 8000486:	2201      	movs	r2, #1
 8000488:	f44f 5100 	mov.w	r1, #8192	; 0x2000
 800048c:	481b      	ldr	r0, [pc, #108]	; (80004fc <jumpToApp+0x9c>)
 800048e:	f000 fefb 	bl	8001288 <HAL_GPIO_WritePin>
 8000492:	2032      	movs	r0, #50	; 0x32
 8000494:	f000 fb70 	bl	8000b78 <HAL_Delay>
 8000498:	2200      	movs	r2, #0
 800049a:	f44f 5100 	mov.w	r1, #8192	; 0x2000
 800049e:	4817      	ldr	r0, [pc, #92]	; (80004fc <jumpToApp+0x9c>)
 80004a0:	f000 fef2 	bl	8001288 <HAL_GPIO_WritePin>
 80004a4:	2032      	movs	r0, #50	; 0x32
 80004a6:	f000 fb67 	bl	8000b78 <HAL_Delay>
 80004aa:	2201      	movs	r2, #1
 80004ac:	f44f 5100 	mov.w	r1, #8192	; 0x2000
 80004b0:	4812      	ldr	r0, [pc, #72]	; (80004fc <jumpToApp+0x9c>)
 80004b2:	f000 fee9 	bl	8001288 <HAL_GPIO_WritePin>
 80004b6:	20c8      	movs	r0, #200	; 0xc8
 80004b8:	f000 fb5e 	bl	8000b78 <HAL_Delay>
 80004bc:	2300      	movs	r3, #0
 80004be:	4a10      	ldr	r2, [pc, #64]	; (8000500 <jumpToApp+0xa0>)
 80004c0:	4910      	ldr	r1, [pc, #64]	; (8000504 <jumpToApp+0xa4>)
 80004c2:	6810      	ldr	r0, [r2, #0]
 80004c4:	3204      	adds	r2, #4
 80004c6:	3001      	adds	r0, #1
 80004c8:	bf04      	itt	eq
 80004ca:	3301      	addeq	r3, #1
 80004cc:	b2db      	uxtbeq	r3, r3
 80004ce:	428a      	cmp	r2, r1
 80004d0:	d1f7      	bne.n	80004c2 <jumpToApp+0x62>
 80004d2:	2b14      	cmp	r3, #20
 80004d4:	d00e      	beq.n	80004f4 <jumpToApp+0x94>
 80004d6:	2200      	movs	r2, #0
 80004d8:	f44f 5100 	mov.w	r1, #8192	; 0x2000
 80004dc:	4807      	ldr	r0, [pc, #28]	; (80004fc <jumpToApp+0x9c>)
 80004de:	f000 fed3 	bl	8001288 <HAL_GPIO_WritePin>
 80004e2:	f7ff fe73 	bl	80001cc <deinitEverything>
 80004e6:	4b06      	ldr	r3, [pc, #24]	; (8000500 <jumpToApp+0xa0>)
 80004e8:	e9d3 2300 	ldrd	r2, r3, [r3]
 80004ec:	f382 8808 	msr	MSP, r2
 80004f0:	4718      	bx	r3
 80004f2:	bd08      	pop	{r3, pc}
 80004f4:	2000      	movs	r0, #0
 80004f6:	f7ff feef 	bl	80002d8 <errorBlink>
 80004fa:	bf00      	nop
 80004fc:	40011000 	.word	0x40011000
 8000500:	08005000 	.word	0x08005000
 8000504:	08005050 	.word	0x08005050

08000508 <bootloaderInit>:
 8000508:	b538      	push	{r3, r4, r5, lr}
 800050a:	2403      	movs	r4, #3
 800050c:	4b22      	ldr	r3, [pc, #136]	; (8000598 <bootloaderInit+0x90>)
 800050e:	4d23      	ldr	r5, [pc, #140]	; (800059c <bootloaderInit+0x94>)
 8000510:	6018      	str	r0, [r3, #0]
 8000512:	2201      	movs	r2, #1
 8000514:	f44f 5100 	mov.w	r1, #8192	; 0x2000
 8000518:	4628      	mov	r0, r5
 800051a:	f000 feb5 	bl	8001288 <HAL_GPIO_WritePin>
 800051e:	2064      	movs	r0, #100	; 0x64
 8000520:	f000 fb2a 	bl	8000b78 <HAL_Delay>
 8000524:	2200      	movs	r2, #0
 8000526:	f44f 5100 	mov.w	r1, #8192	; 0x2000
 800052a:	4628      	mov	r0, r5
 800052c:	f000 feac 	bl	8001288 <HAL_GPIO_WritePin>
 8000530:	3c01      	subs	r4, #1
 8000532:	2064      	movs	r0, #100	; 0x64
 8000534:	f000 fb20 	bl	8000b78 <HAL_Delay>
 8000538:	f014 04ff 	ands.w	r4, r4, #255	; 0xff
 800053c:	d1e9      	bne.n	8000512 <bootloaderInit+0xa>
 800053e:	20c8      	movs	r0, #200	; 0xc8
 8000540:	f000 fb1a 	bl	8000b78 <HAL_Delay>
 8000544:	2201      	movs	r2, #1
 8000546:	4b16      	ldr	r3, [pc, #88]	; (80005a0 <bootloaderInit+0x98>)
 8000548:	601c      	str	r4, [r3, #0]
 800054a:	4b16      	ldr	r3, [pc, #88]	; (80005a4 <bootloaderInit+0x9c>)
 800054c:	701c      	strb	r4, [r3, #0]
 800054e:	4b16      	ldr	r3, [pc, #88]	; (80005a8 <bootloaderInit+0xa0>)
 8000550:	701a      	strb	r2, [r3, #0]
 8000552:	4b16      	ldr	r3, [pc, #88]	; (80005ac <bootloaderInit+0xa4>)
 8000554:	681a      	ldr	r2, [r3, #0]
 8000556:	b1da      	cbz	r2, 8000590 <bootloaderInit+0x88>
 8000558:	3201      	adds	r2, #1
 800055a:	d118      	bne.n	800058e <bootloaderInit+0x86>
 800055c:	240a      	movs	r4, #10
 800055e:	4d0f      	ldr	r5, [pc, #60]	; (800059c <bootloaderInit+0x94>)
 8000560:	2200      	movs	r2, #0
 8000562:	f44f 5100 	mov.w	r1, #8192	; 0x2000
 8000566:	4628      	mov	r0, r5
 8000568:	f000 fe8e 	bl	8001288 <HAL_GPIO_WritePin>
 800056c:	200a      	movs	r0, #10
 800056e:	f000 fb03 	bl	8000b78 <HAL_Delay>
 8000572:	2201      	movs	r2, #1
 8000574:	f44f 5100 	mov.w	r1, #8192	; 0x2000
 8000578:	4628      	mov	r0, r5
 800057a:	f000 fe85 	bl	8001288 <HAL_GPIO_WritePin>
 800057e:	3c01      	subs	r4, #1
 8000580:	205a      	movs	r0, #90	; 0x5a
 8000582:	f000 faf9 	bl	8000b78 <HAL_Delay>
 8000586:	f014 04ff 	ands.w	r4, r4, #255	; 0xff
 800058a:	d1e9      	bne.n	8000560 <bootloaderInit+0x58>
 800058c:	bd38      	pop	{r3, r4, r5, pc}
 800058e:	601c      	str	r4, [r3, #0]
 8000590:	e8bd 4038 	ldmia.w	sp!, {r3, r4, r5, lr}
 8000594:	f7ff bf64 	b.w	8000460 <jumpToApp>
 8000598:	200003cc 	.word	0x200003cc
 800059c:	40011000 	.word	0x40011000
 80005a0:	200003c8 	.word	0x200003c8
 80005a4:	200003c5 	.word	0x200003c5
 80005a8:	200003c4 	.word	0x200003c4
 80005ac:	20000000 	.word	0x20000000

080005b0 <eraseMemory>:
 80005b0:	b510      	push	{r4, lr}
 80005b2:	232c      	movs	r3, #44	; 0x2c
 80005b4:	2400      	movs	r4, #0
 80005b6:	b086      	sub	sp, #24
 80005b8:	4a0c      	ldr	r2, [pc, #48]	; (80005ec <eraseMemory+0x3c>)
 80005ba:	a901      	add	r1, sp, #4
 80005bc:	a802      	add	r0, sp, #8
 80005be:	e9cd 2304 	strd	r2, r3, [sp, #16]
 80005c2:	9402      	str	r4, [sp, #8]
 80005c4:	f000 fcca 	bl	8000f5c <HAL_FLASHEx_Erase>
 80005c8:	f88d 0003 	strb.w	r0, [sp, #3]
 80005cc:	f89d 3003 	ldrb.w	r3, [sp, #3]
 80005d0:	f003 02ff 	and.w	r2, r3, #255	; 0xff
 80005d4:	b113      	cbz	r3, 80005dc <eraseMemory+0x2c>
 80005d6:	4620      	mov	r0, r4
 80005d8:	f7ff fe7e 	bl	80002d8 <errorBlink>
 80005dc:	2101      	movs	r1, #1
 80005de:	4b04      	ldr	r3, [pc, #16]	; (80005f0 <eraseMemory+0x40>)
 80005e0:	7019      	strb	r1, [r3, #0]
 80005e2:	4b04      	ldr	r3, [pc, #16]	; (80005f4 <eraseMemory+0x44>)
 80005e4:	601a      	str	r2, [r3, #0]
 80005e6:	b006      	add	sp, #24
 80005e8:	bd10      	pop	{r4, pc}
 80005ea:	bf00      	nop
 80005ec:	08005000 	.word	0x08005000
 80005f0:	200003c5 	.word	0x200003c5
 80005f4:	200003c8 	.word	0x200003c8

080005f8 <string_compare>:
 80005f8:	b570      	push	{r4, r5, r6, lr}
 80005fa:	2400      	movs	r4, #0
 80005fc:	4623      	mov	r3, r4
 80005fe:	b2e5      	uxtb	r5, r4
 8000600:	4295      	cmp	r5, r2
 8000602:	d303      	bcc.n	800060c <string_compare+0x14>
 8000604:	1a9b      	subs	r3, r3, r2
 8000606:	4258      	negs	r0, r3
 8000608:	4158      	adcs	r0, r3
 800060a:	bd70      	pop	{r4, r5, r6, pc}
 800060c:	5d46      	ldrb	r6, [r0, r5]
 800060e:	5d4d      	ldrb	r5, [r1, r5]
 8000610:	3401      	adds	r4, #1
 8000612:	42ae      	cmp	r6, r5
 8000614:	bf0a      	itet	eq
 8000616:	3301      	addeq	r3, #1
 8000618:	2300      	movne	r3, #0
 800061a:	b2db      	uxtbeq	r3, r3
 800061c:	e7ef      	b.n	80005fe <string_compare+0x6>
	...

08000620 <commandDecoding>:
 8000620:	b538      	push	{r3, r4, r5, lr}
 8000622:	220e      	movs	r2, #14
 8000624:	4914      	ldr	r1, [pc, #80]	; (8000678 <commandDecoding+0x58>)
 8000626:	4605      	mov	r5, r0
 8000628:	f7ff ffe6 	bl	80005f8 <string_compare>
 800062c:	220e      	movs	r2, #14
 800062e:	4604      	mov	r4, r0
 8000630:	4912      	ldr	r1, [pc, #72]	; (800067c <commandDecoding+0x5c>)
 8000632:	4628      	mov	r0, r5
 8000634:	f7ff ffe0 	bl	80005f8 <string_compare>
 8000638:	b9e0      	cbnz	r0, 8000674 <commandDecoding+0x54>
 800063a:	3c00      	subs	r4, #0
 800063c:	bf18      	it	ne
 800063e:	2401      	movne	r4, #1
 8000640:	220e      	movs	r2, #14
 8000642:	4628      	mov	r0, r5
 8000644:	490e      	ldr	r1, [pc, #56]	; (8000680 <commandDecoding+0x60>)
 8000646:	f7ff ffd7 	bl	80005f8 <string_compare>
 800064a:	220e      	movs	r2, #14
 800064c:	2800      	cmp	r0, #0
 800064e:	490d      	ldr	r1, [pc, #52]	; (8000684 <commandDecoding+0x64>)
 8000650:	4628      	mov	r0, r5
 8000652:	bf18      	it	ne
 8000654:	2403      	movne	r4, #3
 8000656:	f7ff ffcf 	bl	80005f8 <string_compare>
 800065a:	220e      	movs	r2, #14
 800065c:	2800      	cmp	r0, #0
 800065e:	490a      	ldr	r1, [pc, #40]	; (8000688 <commandDecoding+0x68>)
 8000660:	4628      	mov	r0, r5
 8000662:	bf18      	it	ne
 8000664:	2404      	movne	r4, #4
 8000666:	f7ff ffc7 	bl	80005f8 <string_compare>
 800066a:	2800      	cmp	r0, #0
 800066c:	bf0c      	ite	eq
 800066e:	4620      	moveq	r0, r4
 8000670:	2005      	movne	r0, #5
 8000672:	bd38      	pop	{r3, r4, r5, pc}
 8000674:	2402      	movs	r4, #2
 8000676:	e7e3      	b.n	8000640 <commandDecoding+0x20>
 8000678:	0800485b 	.word	0x0800485b
 800067c:	0800486a 	.word	0x0800486a
 8000680:	08004879 	.word	0x08004879
 8000684:	08004888 	.word	0x08004888
 8000688:	08004897 	.word	0x08004897

0800068c <messageHandler>:
 800068c:	b510      	push	{r4, lr}
 800068e:	f7ff ffc7 	bl	8000620 <commandDecoding>
 8000692:	2805      	cmp	r0, #5
 8000694:	d852      	bhi.n	800073c <messageHandler+0xb0>
 8000696:	e8df f000 	tbb	[pc, r0]
 800069a:	0903      	.short	0x0903
 800069c:	4c3c2719 	.word	0x4c3c2719
 80006a0:	2118      	movs	r1, #24
 80006a2:	4827      	ldr	r0, [pc, #156]	; (8000740 <messageHandler+0xb4>)
 80006a4:	e8bd 4010 	ldmia.w	sp!, {r4, lr}
 80006a8:	f003 be8c 	b.w	80043c4 <CDC_Transmit_FS>
 80006ac:	4b25      	ldr	r3, [pc, #148]	; (8000744 <messageHandler+0xb8>)
 80006ae:	781b      	ldrb	r3, [r3, #0]
 80006b0:	b10b      	cbz	r3, 80006b6 <messageHandler+0x2a>
 80006b2:	f7ff fd5d 	bl	8000170 <unlockMemory>
 80006b6:	4b24      	ldr	r3, [pc, #144]	; (8000748 <messageHandler+0xbc>)
 80006b8:	781b      	ldrb	r3, [r3, #0]
 80006ba:	2b01      	cmp	r3, #1
 80006bc:	d001      	beq.n	80006c2 <messageHandler+0x36>
 80006be:	f7ff ff77 	bl	80005b0 <eraseMemory>
 80006c2:	f7ff fd6b 	bl	800019c <lockMemory>
 80006c6:	210f      	movs	r1, #15
 80006c8:	4820      	ldr	r0, [pc, #128]	; (800074c <messageHandler+0xc0>)
 80006ca:	e7eb      	b.n	80006a4 <messageHandler+0x18>
 80006cc:	4b1d      	ldr	r3, [pc, #116]	; (8000744 <messageHandler+0xb8>)
 80006ce:	781b      	ldrb	r3, [r3, #0]
 80006d0:	b10b      	cbz	r3, 80006d6 <messageHandler+0x4a>
 80006d2:	f7ff fd4d 	bl	8000170 <unlockMemory>
 80006d6:	4b1c      	ldr	r3, [pc, #112]	; (8000748 <messageHandler+0xbc>)
 80006d8:	781b      	ldrb	r3, [r3, #0]
 80006da:	2b01      	cmp	r3, #1
 80006dc:	d001      	beq.n	80006e2 <messageHandler+0x56>
 80006de:	f7ff ff67 	bl	80005b0 <eraseMemory>
 80006e2:	211a      	movs	r1, #26
 80006e4:	481a      	ldr	r0, [pc, #104]	; (8000750 <messageHandler+0xc4>)
 80006e6:	e7dd      	b.n	80006a4 <messageHandler+0x18>
 80006e8:	4a17      	ldr	r2, [pc, #92]	; (8000748 <messageHandler+0xbc>)
 80006ea:	7813      	ldrb	r3, [r2, #0]
 80006ec:	2b02      	cmp	r3, #2
 80006ee:	d10d      	bne.n	800070c <messageHandler+0x80>
 80006f0:	2300      	movs	r3, #0
 80006f2:	7013      	strb	r3, [r2, #0]
 80006f4:	4a13      	ldr	r2, [pc, #76]	; (8000744 <messageHandler+0xb8>)
 80006f6:	461c      	mov	r4, r3
 80006f8:	7812      	ldrb	r2, [r2, #0]
 80006fa:	2a01      	cmp	r2, #1
 80006fc:	d001      	beq.n	8000702 <messageHandler+0x76>
 80006fe:	f7ff fd4d 	bl	800019c <lockMemory>
 8000702:	4b14      	ldr	r3, [pc, #80]	; (8000754 <messageHandler+0xc8>)
 8000704:	2110      	movs	r1, #16
 8000706:	4814      	ldr	r0, [pc, #80]	; (8000758 <messageHandler+0xcc>)
 8000708:	601c      	str	r4, [r3, #0]
 800070a:	e7cb      	b.n	80006a4 <messageHandler+0x18>
 800070c:	212a      	movs	r1, #42	; 0x2a
 800070e:	4813      	ldr	r0, [pc, #76]	; (800075c <messageHandler+0xd0>)
 8000710:	e7c8      	b.n	80006a4 <messageHandler+0x18>
 8000712:	4b0c      	ldr	r3, [pc, #48]	; (8000744 <messageHandler+0xb8>)
 8000714:	781b      	ldrb	r3, [r3, #0]
 8000716:	b10b      	cbz	r3, 800071c <messageHandler+0x90>
 8000718:	f7ff fd2a 	bl	8000170 <unlockMemory>
 800071c:	4b0a      	ldr	r3, [pc, #40]	; (8000748 <messageHandler+0xbc>)
 800071e:	781b      	ldrb	r3, [r3, #0]
 8000720:	2b01      	cmp	r3, #1
 8000722:	d001      	beq.n	8000728 <messageHandler+0x9c>
 8000724:	f7ff ff44 	bl	80005b0 <eraseMemory>
 8000728:	f7ff fd38 	bl	800019c <lockMemory>
 800072c:	2110      	movs	r1, #16
 800072e:	480c      	ldr	r0, [pc, #48]	; (8000760 <messageHandler+0xd4>)
 8000730:	e7b8      	b.n	80006a4 <messageHandler+0x18>
 8000732:	2200      	movs	r2, #0
 8000734:	4b07      	ldr	r3, [pc, #28]	; (8000754 <messageHandler+0xc8>)
 8000736:	601a      	str	r2, [r3, #0]
 8000738:	f7ff fd08 	bl	800014c <__NVIC_SystemReset>
 800073c:	bd10      	pop	{r4, pc}
 800073e:	bf00      	nop
 8000740:	080048a6 	.word	0x080048a6
 8000744:	200003c4 	.word	0x200003c4
 8000748:	200003c5 	.word	0x200003c5
 800074c:	080048bf 	.word	0x080048bf
 8000750:	080048cf 	.word	0x080048cf
 8000754:	20000000 	.word	0x20000000
 8000758:	080048ea 	.word	0x080048ea
 800075c:	080048fb 	.word	0x080048fb
 8000760:	08004926 	.word	0x08004926

08000764 <createMessage>:
 8000764:	b538      	push	{r3, r4, r5, lr}
 8000766:	460d      	mov	r5, r1
 8000768:	4604      	mov	r4, r0
 800076a:	2200      	movs	r2, #0
 800076c:	f44f 5100 	mov.w	r1, #8192	; 0x2000
 8000770:	4811      	ldr	r0, [pc, #68]	; (80007b8 <createMessage+0x54>)
 8000772:	f000 fd89 	bl	8001288 <HAL_GPIO_WritePin>
 8000776:	2d04      	cmp	r5, #4
 8000778:	d119      	bne.n	80007ae <createMessage+0x4a>
 800077a:	4b10      	ldr	r3, [pc, #64]	; (80007bc <createMessage+0x58>)
 800077c:	781b      	ldrb	r3, [r3, #0]
 800077e:	b9b3      	cbnz	r3, 80007ae <createMessage+0x4a>
 8000780:	4b0f      	ldr	r3, [pc, #60]	; (80007c0 <createMessage+0x5c>)
 8000782:	781b      	ldrb	r3, [r3, #0]
 8000784:	b19b      	cbz	r3, 80007ae <createMessage+0x4a>
 8000786:	78a3      	ldrb	r3, [r4, #2]
 8000788:	78e0      	ldrb	r0, [r4, #3]
 800078a:	041b      	lsls	r3, r3, #16
 800078c:	eb03 6300 	add.w	r3, r3, r0, lsl #24
 8000790:	7860      	ldrb	r0, [r4, #1]
 8000792:	eb03 2300 	add.w	r3, r3, r0, lsl #8
 8000796:	7820      	ldrb	r0, [r4, #0]
 8000798:	4418      	add	r0, r3
 800079a:	f7ff fd47 	bl	800022c <flashWord>
 800079e:	e8bd 4038 	ldmia.w	sp!, {r3, r4, r5, lr}
 80007a2:	2201      	movs	r2, #1
 80007a4:	f44f 5100 	mov.w	r1, #8192	; 0x2000
 80007a8:	4803      	ldr	r0, [pc, #12]	; (80007b8 <createMessage+0x54>)
 80007aa:	f000 bd6d 	b.w	8001288 <HAL_GPIO_WritePin>
 80007ae:	4620      	mov	r0, r4
 80007b0:	f7ff ff6c 	bl	800068c <messageHandler>
 80007b4:	e7f3      	b.n	800079e <createMessage+0x3a>
 80007b6:	bf00      	nop
 80007b8:	40011000 	.word	0x40011000
 80007bc:	200003c4 	.word	0x200003c4
 80007c0:	200003c5 	.word	0x200003c5

080007c4 <SystemClock_Config>:
 80007c4:	b530      	push	{r4, r5, lr}
 80007c6:	2410      	movs	r4, #16
 80007c8:	b095      	sub	sp, #84	; 0x54
 80007ca:	4622      	mov	r2, r4
 80007cc:	2100      	movs	r1, #0
 80007ce:	a80d      	add	r0, sp, #52	; 0x34
 80007d0:	f004 f80c 	bl	80047ec <memset>
 80007d4:	2214      	movs	r2, #20
 80007d6:	2100      	movs	r1, #0
 80007d8:	eb0d 0002 	add.w	r0, sp, r2
 80007dc:	f004 f806 	bl	80047ec <memset>
 80007e0:	4622      	mov	r2, r4
 80007e2:	2100      	movs	r1, #0
 80007e4:	a801      	add	r0, sp, #4
 80007e6:	f004 f801 	bl	80047ec <memset>
 80007ea:	2502      	movs	r5, #2
 80007ec:	f44f 3380 	mov.w	r3, #65536	; 0x10000
 80007f0:	2201      	movs	r2, #1
 80007f2:	2100      	movs	r1, #0
 80007f4:	e9cd 230a 	strd	r2, r3, [sp, #40]	; 0x28
 80007f8:	e9cd 5311 	strd	r5, r3, [sp, #68]	; 0x44
 80007fc:	f44f 13e0 	mov.w	r3, #1835008	; 0x1c0000
 8000800:	a80a      	add	r0, sp, #40	; 0x28
 8000802:	910c      	str	r1, [sp, #48]	; 0x30
 8000804:	920e      	str	r2, [sp, #56]	; 0x38
 8000806:	9313      	str	r3, [sp, #76]	; 0x4c
 8000808:	f001 fc6c 	bl	80020e4 <HAL_RCC_OscConfig>
 800080c:	b108      	cbz	r0, 8000812 <SystemClock_Config+0x4e>
 800080e:	b672      	cpsid	i
 8000810:	e7fe      	b.n	8000810 <SystemClock_Config+0x4c>
 8000812:	230f      	movs	r3, #15
 8000814:	e9cd 3505 	strd	r3, r5, [sp, #20]
 8000818:	f44f 6380 	mov.w	r3, #1024	; 0x400
 800081c:	9007      	str	r0, [sp, #28]
 800081e:	e9cd 3008 	strd	r3, r0, [sp, #32]
 8000822:	4629      	mov	r1, r5
 8000824:	a805      	add	r0, sp, #20
 8000826:	f001 fe33 	bl	8002490 <HAL_RCC_ClockConfig>
 800082a:	b108      	cbz	r0, 8000830 <SystemClock_Config+0x6c>
 800082c:	b672      	cpsid	i
 800082e:	e7fe      	b.n	800082e <SystemClock_Config+0x6a>
 8000830:	9004      	str	r0, [sp, #16]
 8000832:	a801      	add	r0, sp, #4
 8000834:	9401      	str	r4, [sp, #4]
 8000836:	f001 fee7 	bl	8002608 <HAL_RCCEx_PeriphCLKConfig>
 800083a:	b108      	cbz	r0, 8000840 <SystemClock_Config+0x7c>
 800083c:	b672      	cpsid	i
 800083e:	e7fe      	b.n	800083e <SystemClock_Config+0x7a>
 8000840:	b015      	add	sp, #84	; 0x54
 8000842:	bd30      	pop	{r4, r5, pc}

08000844 <main>:
 8000844:	b500      	push	{lr}
 8000846:	4c32      	ldr	r4, [pc, #200]	; (8000910 <main+0xcc>)
 8000848:	b089      	sub	sp, #36	; 0x24
 800084a:	f000 f971 	bl	8000b30 <HAL_Init>
 800084e:	f7ff ffb9 	bl	80007c4 <SystemClock_Config>
 8000852:	2204      	movs	r2, #4
 8000854:	492f      	ldr	r1, [pc, #188]	; (8000914 <main+0xd0>)
 8000856:	4620      	mov	r0, r4
 8000858:	f002 f95b 	bl	8002b12 <HAL_UART_Receive_IT>
 800085c:	2210      	movs	r2, #16
 800085e:	2100      	movs	r1, #0
 8000860:	eb0d 0002 	add.w	r0, sp, r2
 8000864:	f003 ffc2 	bl	80047ec <memset>
 8000868:	4b2b      	ldr	r3, [pc, #172]	; (8000918 <main+0xd4>)
 800086a:	f44f 5100 	mov.w	r1, #8192	; 0x2000
 800086e:	699a      	ldr	r2, [r3, #24]
 8000870:	482a      	ldr	r0, [pc, #168]	; (800091c <main+0xd8>)
 8000872:	f042 0210 	orr.w	r2, r2, #16
 8000876:	619a      	str	r2, [r3, #24]
 8000878:	699a      	ldr	r2, [r3, #24]
 800087a:	2500      	movs	r5, #0
 800087c:	f002 0210 	and.w	r2, r2, #16
 8000880:	9200      	str	r2, [sp, #0]
 8000882:	9a00      	ldr	r2, [sp, #0]
 8000884:	699a      	ldr	r2, [r3, #24]
 8000886:	f042 0220 	orr.w	r2, r2, #32
 800088a:	619a      	str	r2, [r3, #24]
 800088c:	699a      	ldr	r2, [r3, #24]
 800088e:	f002 0220 	and.w	r2, r2, #32
 8000892:	9201      	str	r2, [sp, #4]
 8000894:	9a01      	ldr	r2, [sp, #4]
 8000896:	699a      	ldr	r2, [r3, #24]
 8000898:	f042 0204 	orr.w	r2, r2, #4
 800089c:	619a      	str	r2, [r3, #24]
 800089e:	699a      	ldr	r2, [r3, #24]
 80008a0:	f002 0204 	and.w	r2, r2, #4
 80008a4:	9202      	str	r2, [sp, #8]
 80008a6:	9a02      	ldr	r2, [sp, #8]
 80008a8:	699a      	ldr	r2, [r3, #24]
 80008aa:	f042 0208 	orr.w	r2, r2, #8
 80008ae:	619a      	str	r2, [r3, #24]
 80008b0:	699b      	ldr	r3, [r3, #24]
 80008b2:	2201      	movs	r2, #1
 80008b4:	f003 0308 	and.w	r3, r3, #8
 80008b8:	9303      	str	r3, [sp, #12]
 80008ba:	9b03      	ldr	r3, [sp, #12]
 80008bc:	f000 fce4 	bl	8001288 <HAL_GPIO_WritePin>
 80008c0:	f44f 5100 	mov.w	r1, #8192	; 0x2000
 80008c4:	2301      	movs	r3, #1
 80008c6:	e9cd 1304 	strd	r1, r3, [sp, #16]
 80008ca:	2303      	movs	r3, #3
 80008cc:	4813      	ldr	r0, [pc, #76]	; (800091c <main+0xd8>)
 80008ce:	a904      	add	r1, sp, #16
 80008d0:	e9cd 5306 	strd	r5, r3, [sp, #24]
 80008d4:	f000 fb8e 	bl	8000ff4 <HAL_GPIO_Init>
 80008d8:	f003 fd20 	bl	800431c <MX_USB_DEVICE_Init>
 80008dc:	4b10      	ldr	r3, [pc, #64]	; (8000920 <main+0xdc>)
 80008de:	681b      	ldr	r3, [r3, #0]
 80008e0:	3301      	adds	r3, #1
 80008e2:	d011      	beq.n	8000908 <main+0xc4>
 80008e4:	f44f 5316 	mov.w	r3, #9600	; 0x2580
 80008e8:	4a0e      	ldr	r2, [pc, #56]	; (8000924 <main+0xe0>)
 80008ea:	4620      	mov	r0, r4
 80008ec:	e9c4 2300 	strd	r2, r3, [r4]
 80008f0:	230c      	movs	r3, #12
 80008f2:	e9c4 5502 	strd	r5, r5, [r4, #8]
 80008f6:	e9c4 3505 	strd	r3, r5, [r4, #20]
 80008fa:	6125      	str	r5, [r4, #16]
 80008fc:	61e5      	str	r5, [r4, #28]
 80008fe:	f001 ff4b 	bl	8002798 <HAL_UART_Init>
 8000902:	b108      	cbz	r0, 8000908 <main+0xc4>
 8000904:	b672      	cpsid	i
 8000906:	e7fe      	b.n	8000906 <main+0xc2>
 8000908:	4801      	ldr	r0, [pc, #4]	; (8000910 <main+0xcc>)
 800090a:	f7ff fdfd 	bl	8000508 <bootloaderInit>
 800090e:	e7fe      	b.n	800090e <main+0xca>
 8000910:	200003d0 	.word	0x200003d0
 8000914:	2000019c 	.word	0x2000019c
 8000918:	40021000 	.word	0x40021000
 800091c:	40011000 	.word	0x40011000
 8000920:	20000000 	.word	0x20000000
 8000924:	40004400 	.word	0x40004400

08000928 <HAL_UART_RxCpltCallback>:
 8000928:	b510      	push	{r4, lr}
 800092a:	4c06      	ldr	r4, [pc, #24]	; (8000944 <HAL_UART_RxCpltCallback+0x1c>)
 800092c:	8d81      	ldrh	r1, [r0, #44]	; 0x2c
 800092e:	4620      	mov	r0, r4
 8000930:	f7ff ff18 	bl	8000764 <createMessage>
 8000934:	4621      	mov	r1, r4
 8000936:	e8bd 4010 	ldmia.w	sp!, {r4, lr}
 800093a:	2204      	movs	r2, #4
 800093c:	4802      	ldr	r0, [pc, #8]	; (8000948 <HAL_UART_RxCpltCallback+0x20>)
 800093e:	f002 b8e8 	b.w	8002b12 <HAL_UART_Receive_IT>
 8000942:	bf00      	nop
 8000944:	2000019c 	.word	0x2000019c
 8000948:	200003d0 	.word	0x200003d0

0800094c <Error_Handler>:
 800094c:	b672      	cpsid	i
 800094e:	e7fe      	b.n	800094e <Error_Handler+0x2>

08000950 <HAL_MspInit>:
 8000950:	4b0e      	ldr	r3, [pc, #56]	; (800098c <HAL_MspInit+0x3c>)
 8000952:	b082      	sub	sp, #8
 8000954:	699a      	ldr	r2, [r3, #24]
 8000956:	f042 0201 	orr.w	r2, r2, #1
 800095a:	619a      	str	r2, [r3, #24]
 800095c:	699a      	ldr	r2, [r3, #24]
 800095e:	f002 0201 	and.w	r2, r2, #1
 8000962:	9200      	str	r2, [sp, #0]
 8000964:	9a00      	ldr	r2, [sp, #0]
 8000966:	69da      	ldr	r2, [r3, #28]
 8000968:	f042 5280 	orr.w	r2, r2, #268435456	; 0x10000000
 800096c:	61da      	str	r2, [r3, #28]
 800096e:	69db      	ldr	r3, [r3, #28]
 8000970:	4a07      	ldr	r2, [pc, #28]	; (8000990 <HAL_MspInit+0x40>)
 8000972:	f003 5380 	and.w	r3, r3, #268435456	; 0x10000000
 8000976:	9301      	str	r3, [sp, #4]
 8000978:	9b01      	ldr	r3, [sp, #4]
 800097a:	6853      	ldr	r3, [r2, #4]
 800097c:	f023 63e0 	bic.w	r3, r3, #117440512	; 0x7000000
 8000980:	f043 7300 	orr.w	r3, r3, #33554432	; 0x2000000
 8000984:	6053      	str	r3, [r2, #4]
 8000986:	b002      	add	sp, #8
 8000988:	4770      	bx	lr
 800098a:	bf00      	nop
 800098c:	40021000 	.word	0x40021000
 8000990:	40010000 	.word	0x40010000

08000994 <HAL_UART_MspInit>:
 8000994:	b510      	push	{r4, lr}
 8000996:	4604      	mov	r4, r0
 8000998:	b086      	sub	sp, #24
 800099a:	2210      	movs	r2, #16
 800099c:	2100      	movs	r1, #0
 800099e:	a802      	add	r0, sp, #8
 80009a0:	f003 ff24 	bl	80047ec <memset>
 80009a4:	6822      	ldr	r2, [r4, #0]
 80009a6:	4b1a      	ldr	r3, [pc, #104]	; (8000a10 <HAL_UART_MspInit+0x7c>)
 80009a8:	429a      	cmp	r2, r3
 80009aa:	d12f      	bne.n	8000a0c <HAL_UART_MspInit+0x78>
 80009ac:	f503 33e6 	add.w	r3, r3, #117760	; 0x1cc00
 80009b0:	69da      	ldr	r2, [r3, #28]
 80009b2:	4818      	ldr	r0, [pc, #96]	; (8000a14 <HAL_UART_MspInit+0x80>)
 80009b4:	f442 3200 	orr.w	r2, r2, #131072	; 0x20000
 80009b8:	61da      	str	r2, [r3, #28]
 80009ba:	69da      	ldr	r2, [r3, #28]
 80009bc:	a902      	add	r1, sp, #8
 80009be:	f402 3200 	and.w	r2, r2, #131072	; 0x20000
 80009c2:	9200      	str	r2, [sp, #0]
 80009c4:	9a00      	ldr	r2, [sp, #0]
 80009c6:	699a      	ldr	r2, [r3, #24]
 80009c8:	2400      	movs	r4, #0
 80009ca:	f042 0204 	orr.w	r2, r2, #4
 80009ce:	619a      	str	r2, [r3, #24]
 80009d0:	699b      	ldr	r3, [r3, #24]
 80009d2:	2204      	movs	r2, #4
 80009d4:	f003 0304 	and.w	r3, r3, #4
 80009d8:	9301      	str	r3, [sp, #4]
 80009da:	9b01      	ldr	r3, [sp, #4]
 80009dc:	2302      	movs	r3, #2
 80009de:	e9cd 2302 	strd	r2, r3, [sp, #8]
 80009e2:	2303      	movs	r3, #3
 80009e4:	9305      	str	r3, [sp, #20]
 80009e6:	f000 fb05 	bl	8000ff4 <HAL_GPIO_Init>
 80009ea:	2308      	movs	r3, #8
 80009ec:	4809      	ldr	r0, [pc, #36]	; (8000a14 <HAL_UART_MspInit+0x80>)
 80009ee:	eb0d 0103 	add.w	r1, sp, r3
 80009f2:	e9cd 3402 	strd	r3, r4, [sp, #8]
 80009f6:	9404      	str	r4, [sp, #16]
 80009f8:	f000 fafc 	bl	8000ff4 <HAL_GPIO_Init>
 80009fc:	2026      	movs	r0, #38	; 0x26
 80009fe:	4622      	mov	r2, r4
 8000a00:	4621      	mov	r1, r4
 8000a02:	f000 f8dd 	bl	8000bc0 <HAL_NVIC_SetPriority>
 8000a06:	2026      	movs	r0, #38	; 0x26
 8000a08:	f000 f90c 	bl	8000c24 <HAL_NVIC_EnableIRQ>
 8000a0c:	b006      	add	sp, #24
 8000a0e:	bd10      	pop	{r4, pc}
 8000a10:	40004400 	.word	0x40004400
 8000a14:	40010800 	.word	0x40010800

08000a18 <HAL_UART_MspDeInit>:
 8000a18:	b508      	push	{r3, lr}
 8000a1a:	6802      	ldr	r2, [r0, #0]
 8000a1c:	4b08      	ldr	r3, [pc, #32]	; (8000a40 <HAL_UART_MspDeInit+0x28>)
 8000a1e:	429a      	cmp	r2, r3
 8000a20:	d10d      	bne.n	8000a3e <HAL_UART_MspDeInit+0x26>
 8000a22:	4a08      	ldr	r2, [pc, #32]	; (8000a44 <HAL_UART_MspDeInit+0x2c>)
 8000a24:	4808      	ldr	r0, [pc, #32]	; (8000a48 <HAL_UART_MspDeInit+0x30>)
 8000a26:	69d3      	ldr	r3, [r2, #28]
 8000a28:	210c      	movs	r1, #12
 8000a2a:	f423 3300 	bic.w	r3, r3, #131072	; 0x20000
 8000a2e:	61d3      	str	r3, [r2, #28]
 8000a30:	f000 fbbc 	bl	80011ac <HAL_GPIO_DeInit>
 8000a34:	e8bd 4008 	ldmia.w	sp!, {r3, lr}
 8000a38:	2026      	movs	r0, #38	; 0x26
 8000a3a:	f000 b901 	b.w	8000c40 <HAL_NVIC_DisableIRQ>
 8000a3e:	bd08      	pop	{r3, pc}
 8000a40:	40004400 	.word	0x40004400
 8000a44:	40021000 	.word	0x40021000
 8000a48:	40010800 	.word	0x40010800

08000a4c <NMI_Handler>:
 8000a4c:	e7fe      	b.n	8000a4c <NMI_Handler>

08000a4e <HardFault_Handler>:
 8000a4e:	e7fe      	b.n	8000a4e <HardFault_Handler>

08000a50 <MemManage_Handler>:
 8000a50:	e7fe      	b.n	8000a50 <MemManage_Handler>

08000a52 <BusFault_Handler>:
 8000a52:	e7fe      	b.n	8000a52 <BusFault_Handler>

08000a54 <UsageFault_Handler>:
 8000a54:	e7fe      	b.n	8000a54 <UsageFault_Handler>

08000a56 <SVC_Handler>:
 8000a56:	4770      	bx	lr

08000a58 <DebugMon_Handler>:
 8000a58:	4770      	bx	lr

08000a5a <PendSV_Handler>:
 8000a5a:	4770      	bx	lr

08000a5c <SysTick_Handler>:
 8000a5c:	f000 b87a 	b.w	8000b54 <HAL_IncTick>

08000a60 <USB_LP_CAN1_RX0_IRQHandler>:
 8000a60:	4801      	ldr	r0, [pc, #4]	; (8000a68 <USB_LP_CAN1_RX0_IRQHandler+0x8>)
 8000a62:	f000 bceb 	b.w	800143c <HAL_PCD_IRQHandler>
 8000a66:	bf00      	nop
 8000a68:	200010cc 	.word	0x200010cc

08000a6c <USART2_IRQHandler>:
 8000a6c:	4801      	ldr	r0, [pc, #4]	; (8000a74 <USART2_IRQHandler+0x8>)
 8000a6e:	f001 bf37 	b.w	80028e0 <HAL_UART_IRQHandler>
 8000a72:	bf00      	nop
 8000a74:	200003d0 	.word	0x200003d0

08000a78 <SystemInit>:
 8000a78:	4770      	bx	lr
	...

08000a7c <Reset_Handler>:
 8000a7c:	2100      	movs	r1, #0
 8000a7e:	e003      	b.n	8000a88 <LoopCopyDataInit>

08000a80 <CopyDataInit>:
 8000a80:	4b0b      	ldr	r3, [pc, #44]	; (8000ab0 <LoopFillZerobss+0x14>)
 8000a82:	585b      	ldr	r3, [r3, r1]
 8000a84:	5043      	str	r3, [r0, r1]
 8000a86:	3104      	adds	r1, #4

08000a88 <LoopCopyDataInit>:
 8000a88:	480a      	ldr	r0, [pc, #40]	; (8000ab4 <LoopFillZerobss+0x18>)
 8000a8a:	4b0b      	ldr	r3, [pc, #44]	; (8000ab8 <LoopFillZerobss+0x1c>)
 8000a8c:	1842      	adds	r2, r0, r1
 8000a8e:	429a      	cmp	r2, r3
 8000a90:	d3f6      	bcc.n	8000a80 <CopyDataInit>
 8000a92:	4a0a      	ldr	r2, [pc, #40]	; (8000abc <LoopFillZerobss+0x20>)
 8000a94:	e002      	b.n	8000a9c <LoopFillZerobss>

08000a96 <FillZerobss>:
 8000a96:	2300      	movs	r3, #0
 8000a98:	f842 3b04 	str.w	r3, [r2], #4

08000a9c <LoopFillZerobss>:
 8000a9c:	4b08      	ldr	r3, [pc, #32]	; (8000ac0 <LoopFillZerobss+0x24>)
 8000a9e:	429a      	cmp	r2, r3
 8000aa0:	d3f9      	bcc.n	8000a96 <FillZerobss>
 8000aa2:	f7ff ffe9 	bl	8000a78 <SystemInit>
 8000aa6:	f003 fe7d 	bl	80047a4 <__libc_init_array>
 8000aaa:	f7ff fecb 	bl	8000844 <main>
 8000aae:	4770      	bx	lr
 8000ab0:	080049a4 	.word	0x080049a4
 8000ab4:	20000004 	.word	0x20000004
 8000ab8:	20000180 	.word	0x20000180
 8000abc:	20000180 	.word	0x20000180
 8000ac0:	200013b8 	.word	0x200013b8

08000ac4 <ADC1_2_IRQHandler>:
 8000ac4:	e7fe      	b.n	8000ac4 <ADC1_2_IRQHandler>

08000ac6 <HAL_MspDeInit>:
 8000ac6:	4770      	bx	lr

08000ac8 <HAL_DeInit>:
 8000ac8:	b510      	push	{r4, lr}
 8000aca:	f04f 32ff 	mov.w	r2, #4294967295
 8000ace:	2400      	movs	r4, #0
 8000ad0:	4b04      	ldr	r3, [pc, #16]	; (8000ae4 <HAL_DeInit+0x1c>)
 8000ad2:	60da      	str	r2, [r3, #12]
 8000ad4:	611c      	str	r4, [r3, #16]
 8000ad6:	60da      	str	r2, [r3, #12]
 8000ad8:	60dc      	str	r4, [r3, #12]
 8000ada:	f7ff fff4 	bl	8000ac6 <HAL_MspDeInit>
 8000ade:	4620      	mov	r0, r4
 8000ae0:	bd10      	pop	{r4, pc}
 8000ae2:	bf00      	nop
 8000ae4:	40021000 	.word	0x40021000

08000ae8 <HAL_InitTick>:
 8000ae8:	b538      	push	{r3, r4, r5, lr}
 8000aea:	4b0e      	ldr	r3, [pc, #56]	; (8000b24 <HAL_InitTick+0x3c>)
 8000aec:	4605      	mov	r5, r0
 8000aee:	7818      	ldrb	r0, [r3, #0]
 8000af0:	f44f 737a 	mov.w	r3, #1000	; 0x3e8
 8000af4:	fbb3 f3f0 	udiv	r3, r3, r0
 8000af8:	4a0b      	ldr	r2, [pc, #44]	; (8000b28 <HAL_InitTick+0x40>)
 8000afa:	6810      	ldr	r0, [r2, #0]
 8000afc:	fbb0 f0f3 	udiv	r0, r0, r3
 8000b00:	f000 f8b2 	bl	8000c68 <HAL_SYSTICK_Config>
 8000b04:	4604      	mov	r4, r0
 8000b06:	b958      	cbnz	r0, 8000b20 <HAL_InitTick+0x38>
 8000b08:	2d0f      	cmp	r5, #15
 8000b0a:	d809      	bhi.n	8000b20 <HAL_InitTick+0x38>
 8000b0c:	4602      	mov	r2, r0
 8000b0e:	4629      	mov	r1, r5
 8000b10:	f04f 30ff 	mov.w	r0, #4294967295
 8000b14:	f000 f854 	bl	8000bc0 <HAL_NVIC_SetPriority>
 8000b18:	4620      	mov	r0, r4
 8000b1a:	4b04      	ldr	r3, [pc, #16]	; (8000b2c <HAL_InitTick+0x44>)
 8000b1c:	601d      	str	r5, [r3, #0]
 8000b1e:	bd38      	pop	{r3, r4, r5, pc}
 8000b20:	2001      	movs	r0, #1
 8000b22:	e7fc      	b.n	8000b1e <HAL_InitTick+0x36>
 8000b24:	20000008 	.word	0x20000008
 8000b28:	20000004 	.word	0x20000004
 8000b2c:	2000000c 	.word	0x2000000c

08000b30 <HAL_Init>:
 8000b30:	4a07      	ldr	r2, [pc, #28]	; (8000b50 <HAL_Init+0x20>)
 8000b32:	b508      	push	{r3, lr}
 8000b34:	6813      	ldr	r3, [r2, #0]
 8000b36:	2003      	movs	r0, #3
 8000b38:	f043 0310 	orr.w	r3, r3, #16
 8000b3c:	6013      	str	r3, [r2, #0]
 8000b3e:	f000 f82d 	bl	8000b9c <HAL_NVIC_SetPriorityGrouping>
 8000b42:	2000      	movs	r0, #0
 8000b44:	f7ff ffd0 	bl	8000ae8 <HAL_InitTick>
 8000b48:	f7ff ff02 	bl	8000950 <HAL_MspInit>
 8000b4c:	2000      	movs	r0, #0
 8000b4e:	bd08      	pop	{r3, pc}
 8000b50:	40022000 	.word	0x40022000

08000b54 <HAL_IncTick>:
 8000b54:	4a03      	ldr	r2, [pc, #12]	; (8000b64 <HAL_IncTick+0x10>)
 8000b56:	4b04      	ldr	r3, [pc, #16]	; (8000b68 <HAL_IncTick+0x14>)
 8000b58:	6811      	ldr	r1, [r2, #0]
 8000b5a:	781b      	ldrb	r3, [r3, #0]
 8000b5c:	440b      	add	r3, r1
 8000b5e:	6013      	str	r3, [r2, #0]
 8000b60:	4770      	bx	lr
 8000b62:	bf00      	nop
 8000b64:	20000414 	.word	0x20000414
 8000b68:	20000008 	.word	0x20000008

08000b6c <HAL_GetTick>:
 8000b6c:	4b01      	ldr	r3, [pc, #4]	; (8000b74 <HAL_GetTick+0x8>)
 8000b6e:	6818      	ldr	r0, [r3, #0]
 8000b70:	4770      	bx	lr
 8000b72:	bf00      	nop
 8000b74:	20000414 	.word	0x20000414

08000b78 <HAL_Delay>:
 8000b78:	b538      	push	{r3, r4, r5, lr}
 8000b7a:	4604      	mov	r4, r0
 8000b7c:	f7ff fff6 	bl	8000b6c <HAL_GetTick>
 8000b80:	4605      	mov	r5, r0
 8000b82:	1c63      	adds	r3, r4, #1
 8000b84:	bf1e      	ittt	ne
 8000b86:	4b04      	ldrne	r3, [pc, #16]	; (8000b98 <HAL_Delay+0x20>)
 8000b88:	781b      	ldrbne	r3, [r3, #0]
 8000b8a:	18e4      	addne	r4, r4, r3
 8000b8c:	f7ff ffee 	bl	8000b6c <HAL_GetTick>
 8000b90:	1b43      	subs	r3, r0, r5
 8000b92:	42a3      	cmp	r3, r4
 8000b94:	d3fa      	bcc.n	8000b8c <HAL_Delay+0x14>
 8000b96:	bd38      	pop	{r3, r4, r5, pc}
 8000b98:	20000008 	.word	0x20000008

08000b9c <HAL_NVIC_SetPriorityGrouping>:
 8000b9c:	4907      	ldr	r1, [pc, #28]	; (8000bbc <HAL_NVIC_SetPriorityGrouping+0x20>)
 8000b9e:	0203      	lsls	r3, r0, #8
 8000ba0:	68ca      	ldr	r2, [r1, #12]
 8000ba2:	f403 63e0 	and.w	r3, r3, #1792	; 0x700
 8000ba6:	f422 62e0 	bic.w	r2, r2, #1792	; 0x700
 8000baa:	0412      	lsls	r2, r2, #16
 8000bac:	0c12      	lsrs	r2, r2, #16
 8000bae:	4313      	orrs	r3, r2
 8000bb0:	f043 63bf 	orr.w	r3, r3, #100139008	; 0x5f80000
 8000bb4:	f443 3300 	orr.w	r3, r3, #131072	; 0x20000
 8000bb8:	60cb      	str	r3, [r1, #12]
 8000bba:	4770      	bx	lr
 8000bbc:	e000ed00 	.word	0xe000ed00

08000bc0 <HAL_NVIC_SetPriority>:
 8000bc0:	4b16      	ldr	r3, [pc, #88]	; (8000c1c <HAL_NVIC_SetPriority+0x5c>)
 8000bc2:	b530      	push	{r4, r5, lr}
 8000bc4:	68dc      	ldr	r4, [r3, #12]
 8000bc6:	f3c4 2402 	ubfx	r4, r4, #8, #3
 8000bca:	f1c4 0307 	rsb	r3, r4, #7
 8000bce:	1d25      	adds	r5, r4, #4
 8000bd0:	2b04      	cmp	r3, #4
 8000bd2:	bf28      	it	cs
 8000bd4:	2304      	movcs	r3, #4
 8000bd6:	2d06      	cmp	r5, #6
 8000bd8:	f04f 35ff 	mov.w	r5, #4294967295
 8000bdc:	bf98      	it	ls
 8000bde:	2400      	movls	r4, #0
 8000be0:	fa05 f303 	lsl.w	r3, r5, r3
 8000be4:	bf88      	it	hi
 8000be6:	3c03      	subhi	r4, #3
 8000be8:	ea21 0303 	bic.w	r3, r1, r3
 8000bec:	40a3      	lsls	r3, r4
 8000bee:	fa05 f404 	lsl.w	r4, r5, r4
 8000bf2:	ea22 0204 	bic.w	r2, r2, r4
 8000bf6:	2800      	cmp	r0, #0
 8000bf8:	ea43 0302 	orr.w	r3, r3, r2
 8000bfc:	bfac      	ite	ge
 8000bfe:	f100 4060 	addge.w	r0, r0, #3758096384	; 0xe0000000
 8000c02:	4a07      	ldrlt	r2, [pc, #28]	; (8000c20 <HAL_NVIC_SetPriority+0x60>)
 8000c04:	ea4f 1303 	mov.w	r3, r3, lsl #4
 8000c08:	b2db      	uxtb	r3, r3
 8000c0a:	bfab      	itete	ge
 8000c0c:	f500 4061 	addge.w	r0, r0, #57600	; 0xe100
 8000c10:	f000 000f 	andlt.w	r0, r0, #15
 8000c14:	f880 3300 	strbge.w	r3, [r0, #768]	; 0x300
 8000c18:	5413      	strblt	r3, [r2, r0]
 8000c1a:	bd30      	pop	{r4, r5, pc}
 8000c1c:	e000ed00 	.word	0xe000ed00
 8000c20:	e000ed14 	.word	0xe000ed14

08000c24 <HAL_NVIC_EnableIRQ>:
 8000c24:	2800      	cmp	r0, #0
 8000c26:	db08      	blt.n	8000c3a <HAL_NVIC_EnableIRQ+0x16>
 8000c28:	2301      	movs	r3, #1
 8000c2a:	0942      	lsrs	r2, r0, #5
 8000c2c:	f000 001f 	and.w	r0, r0, #31
 8000c30:	fa03 f000 	lsl.w	r0, r3, r0
 8000c34:	4b01      	ldr	r3, [pc, #4]	; (8000c3c <HAL_NVIC_EnableIRQ+0x18>)
 8000c36:	f843 0022 	str.w	r0, [r3, r2, lsl #2]
 8000c3a:	4770      	bx	lr
 8000c3c:	e000e100 	.word	0xe000e100

08000c40 <HAL_NVIC_DisableIRQ>:
 8000c40:	2800      	cmp	r0, #0
 8000c42:	db0d      	blt.n	8000c60 <HAL_NVIC_DisableIRQ+0x20>
 8000c44:	2201      	movs	r2, #1
 8000c46:	0943      	lsrs	r3, r0, #5
 8000c48:	f000 001f 	and.w	r0, r0, #31
 8000c4c:	fa02 f000 	lsl.w	r0, r2, r0
 8000c50:	4a04      	ldr	r2, [pc, #16]	; (8000c64 <HAL_NVIC_DisableIRQ+0x24>)
 8000c52:	3320      	adds	r3, #32
 8000c54:	f842 0023 	str.w	r0, [r2, r3, lsl #2]
 8000c58:	f3bf 8f4f 	dsb	sy
 8000c5c:	f3bf 8f6f 	isb	sy
 8000c60:	4770      	bx	lr
 8000c62:	bf00      	nop
 8000c64:	e000e100 	.word	0xe000e100

08000c68 <HAL_SYSTICK_Config>:
 8000c68:	3801      	subs	r0, #1
 8000c6a:	f1b0 7f80 	cmp.w	r0, #16777216	; 0x1000000
 8000c6e:	d20a      	bcs.n	8000c86 <HAL_SYSTICK_Config+0x1e>
 8000c70:	21f0      	movs	r1, #240	; 0xf0
 8000c72:	4b06      	ldr	r3, [pc, #24]	; (8000c8c <HAL_SYSTICK_Config+0x24>)
 8000c74:	4a06      	ldr	r2, [pc, #24]	; (8000c90 <HAL_SYSTICK_Config+0x28>)
 8000c76:	6058      	str	r0, [r3, #4]
 8000c78:	f882 1023 	strb.w	r1, [r2, #35]	; 0x23
 8000c7c:	2000      	movs	r0, #0
 8000c7e:	2207      	movs	r2, #7
 8000c80:	6098      	str	r0, [r3, #8]
 8000c82:	601a      	str	r2, [r3, #0]
 8000c84:	4770      	bx	lr
 8000c86:	2001      	movs	r0, #1
 8000c88:	4770      	bx	lr
 8000c8a:	bf00      	nop
 8000c8c:	e000e010 	.word	0xe000e010
 8000c90:	e000ed00 	.word	0xe000ed00

08000c94 <HAL_DMA_Abort>:
 8000c94:	f890 3021 	ldrb.w	r3, [r0, #33]	; 0x21
 8000c98:	2b02      	cmp	r3, #2
 8000c9a:	d006      	beq.n	8000caa <HAL_DMA_Abort+0x16>
 8000c9c:	2304      	movs	r3, #4
 8000c9e:	6383      	str	r3, [r0, #56]	; 0x38
 8000ca0:	2300      	movs	r3, #0
 8000ca2:	f880 3020 	strb.w	r3, [r0, #32]
 8000ca6:	2001      	movs	r0, #1
 8000ca8:	4770      	bx	lr
 8000caa:	6803      	ldr	r3, [r0, #0]
 8000cac:	681a      	ldr	r2, [r3, #0]
 8000cae:	f022 020e 	bic.w	r2, r2, #14
 8000cb2:	601a      	str	r2, [r3, #0]
 8000cb4:	681a      	ldr	r2, [r3, #0]
 8000cb6:	f022 0201 	bic.w	r2, r2, #1
 8000cba:	601a      	str	r2, [r3, #0]
 8000cbc:	2301      	movs	r3, #1
 8000cbe:	e9d0 210f 	ldrd	r2, r1, [r0, #60]	; 0x3c
 8000cc2:	408b      	lsls	r3, r1
 8000cc4:	6053      	str	r3, [r2, #4]
 8000cc6:	f44f 7380 	mov.w	r3, #256	; 0x100
 8000cca:	8403      	strh	r3, [r0, #32]
 8000ccc:	2000      	movs	r0, #0
 8000cce:	4770      	bx	lr

08000cd0 <HAL_DMA_Abort_IT>:
 8000cd0:	b508      	push	{r3, lr}
 8000cd2:	f890 3021 	ldrb.w	r3, [r0, #33]	; 0x21
 8000cd6:	2b02      	cmp	r3, #2
 8000cd8:	d003      	beq.n	8000ce2 <HAL_DMA_Abort_IT+0x12>
 8000cda:	2304      	movs	r3, #4
 8000cdc:	6383      	str	r3, [r0, #56]	; 0x38
 8000cde:	2001      	movs	r0, #1
 8000ce0:	bd08      	pop	{r3, pc}
 8000ce2:	6803      	ldr	r3, [r0, #0]
 8000ce4:	681a      	ldr	r2, [r3, #0]
 8000ce6:	f022 020e 	bic.w	r2, r2, #14
 8000cea:	601a      	str	r2, [r3, #0]
 8000cec:	681a      	ldr	r2, [r3, #0]
 8000cee:	f022 0201 	bic.w	r2, r2, #1
 8000cf2:	601a      	str	r2, [r3, #0]
 8000cf4:	4a17      	ldr	r2, [pc, #92]	; (8000d54 <HAL_DMA_Abort_IT+0x84>)
 8000cf6:	4293      	cmp	r3, r2
 8000cf8:	d01c      	beq.n	8000d34 <HAL_DMA_Abort_IT+0x64>
 8000cfa:	3214      	adds	r2, #20
 8000cfc:	4293      	cmp	r3, r2
 8000cfe:	d01b      	beq.n	8000d38 <HAL_DMA_Abort_IT+0x68>
 8000d00:	3214      	adds	r2, #20
 8000d02:	4293      	cmp	r3, r2
 8000d04:	d01a      	beq.n	8000d3c <HAL_DMA_Abort_IT+0x6c>
 8000d06:	3214      	adds	r2, #20
 8000d08:	4293      	cmp	r3, r2
 8000d0a:	d01a      	beq.n	8000d42 <HAL_DMA_Abort_IT+0x72>
 8000d0c:	3214      	adds	r2, #20
 8000d0e:	4293      	cmp	r3, r2
 8000d10:	d01a      	beq.n	8000d48 <HAL_DMA_Abort_IT+0x78>
 8000d12:	3214      	adds	r2, #20
 8000d14:	4293      	cmp	r3, r2
 8000d16:	bf0c      	ite	eq
 8000d18:	f44f 1380 	moveq.w	r3, #1048576	; 0x100000
 8000d1c:	f04f 7380 	movne.w	r3, #16777216	; 0x1000000
 8000d20:	4a0d      	ldr	r2, [pc, #52]	; (8000d58 <HAL_DMA_Abort_IT+0x88>)
 8000d22:	6053      	str	r3, [r2, #4]
 8000d24:	f44f 7380 	mov.w	r3, #256	; 0x100
 8000d28:	8403      	strh	r3, [r0, #32]
 8000d2a:	6b43      	ldr	r3, [r0, #52]	; 0x34
 8000d2c:	b17b      	cbz	r3, 8000d4e <HAL_DMA_Abort_IT+0x7e>
 8000d2e:	4798      	blx	r3
 8000d30:	2000      	movs	r0, #0
 8000d32:	e7d5      	b.n	8000ce0 <HAL_DMA_Abort_IT+0x10>
 8000d34:	2301      	movs	r3, #1
 8000d36:	e7f3      	b.n	8000d20 <HAL_DMA_Abort_IT+0x50>
 8000d38:	2310      	movs	r3, #16
 8000d3a:	e7f1      	b.n	8000d20 <HAL_DMA_Abort_IT+0x50>
 8000d3c:	f44f 7380 	mov.w	r3, #256	; 0x100
 8000d40:	e7ee      	b.n	8000d20 <HAL_DMA_Abort_IT+0x50>
 8000d42:	f44f 5380 	mov.w	r3, #4096	; 0x1000
 8000d46:	e7eb      	b.n	8000d20 <HAL_DMA_Abort_IT+0x50>
 8000d48:	f44f 3380 	mov.w	r3, #65536	; 0x10000
 8000d4c:	e7e8      	b.n	8000d20 <HAL_DMA_Abort_IT+0x50>
 8000d4e:	4618      	mov	r0, r3
 8000d50:	e7c6      	b.n	8000ce0 <HAL_DMA_Abort_IT+0x10>
 8000d52:	bf00      	nop
 8000d54:	40020008 	.word	0x40020008
 8000d58:	40020000 	.word	0x40020000

08000d5c <FLASH_SetErrorCode>:
 8000d5c:	4a11      	ldr	r2, [pc, #68]	; (8000da4 <FLASH_SetErrorCode+0x48>)
 8000d5e:	68d3      	ldr	r3, [r2, #12]
 8000d60:	f013 0310 	ands.w	r3, r3, #16
 8000d64:	d005      	beq.n	8000d72 <FLASH_SetErrorCode+0x16>
 8000d66:	4910      	ldr	r1, [pc, #64]	; (8000da8 <FLASH_SetErrorCode+0x4c>)
 8000d68:	69cb      	ldr	r3, [r1, #28]
 8000d6a:	f043 0302 	orr.w	r3, r3, #2
 8000d6e:	61cb      	str	r3, [r1, #28]
 8000d70:	2310      	movs	r3, #16
 8000d72:	68d2      	ldr	r2, [r2, #12]
 8000d74:	0750      	lsls	r0, r2, #29
 8000d76:	d506      	bpl.n	8000d86 <FLASH_SetErrorCode+0x2a>
 8000d78:	490b      	ldr	r1, [pc, #44]	; (8000da8 <FLASH_SetErrorCode+0x4c>)
 8000d7a:	f043 0304 	orr.w	r3, r3, #4
 8000d7e:	69ca      	ldr	r2, [r1, #28]
 8000d80:	f042 0201 	orr.w	r2, r2, #1
 8000d84:	61ca      	str	r2, [r1, #28]
 8000d86:	4a07      	ldr	r2, [pc, #28]	; (8000da4 <FLASH_SetErrorCode+0x48>)
 8000d88:	69d1      	ldr	r1, [r2, #28]
 8000d8a:	07c9      	lsls	r1, r1, #31
 8000d8c:	d508      	bpl.n	8000da0 <FLASH_SetErrorCode+0x44>
 8000d8e:	4806      	ldr	r0, [pc, #24]	; (8000da8 <FLASH_SetErrorCode+0x4c>)
 8000d90:	69c1      	ldr	r1, [r0, #28]
 8000d92:	f041 0104 	orr.w	r1, r1, #4
 8000d96:	61c1      	str	r1, [r0, #28]
 8000d98:	69d1      	ldr	r1, [r2, #28]
 8000d9a:	f021 0101 	bic.w	r1, r1, #1
 8000d9e:	61d1      	str	r1, [r2, #28]
 8000da0:	60d3      	str	r3, [r2, #12]
 8000da2:	4770      	bx	lr
 8000da4:	40022000 	.word	0x40022000
 8000da8:	20000418 	.word	0x20000418

08000dac <HAL_FLASH_Unlock>:
 8000dac:	4b06      	ldr	r3, [pc, #24]	; (8000dc8 <HAL_FLASH_Unlock+0x1c>)
 8000dae:	6918      	ldr	r0, [r3, #16]
 8000db0:	f010 0080 	ands.w	r0, r0, #128	; 0x80
 8000db4:	d007      	beq.n	8000dc6 <HAL_FLASH_Unlock+0x1a>
 8000db6:	4a05      	ldr	r2, [pc, #20]	; (8000dcc <HAL_FLASH_Unlock+0x20>)
 8000db8:	605a      	str	r2, [r3, #4]
 8000dba:	f102 3288 	add.w	r2, r2, #2290649224	; 0x88888888
 8000dbe:	605a      	str	r2, [r3, #4]
 8000dc0:	6918      	ldr	r0, [r3, #16]
 8000dc2:	f3c0 10c0 	ubfx	r0, r0, #7, #1
 8000dc6:	4770      	bx	lr
 8000dc8:	40022000 	.word	0x40022000
 8000dcc:	45670123 	.word	0x45670123

08000dd0 <HAL_FLASH_Lock>:
 8000dd0:	4a03      	ldr	r2, [pc, #12]	; (8000de0 <HAL_FLASH_Lock+0x10>)
 8000dd2:	2000      	movs	r0, #0
 8000dd4:	6913      	ldr	r3, [r2, #16]
 8000dd6:	f043 0380 	orr.w	r3, r3, #128	; 0x80
 8000dda:	6113      	str	r3, [r2, #16]
 8000ddc:	4770      	bx	lr
 8000dde:	bf00      	nop
 8000de0:	40022000 	.word	0x40022000

08000de4 <HAL_FLASH_OB_Unlock>:
 8000de4:	4b06      	ldr	r3, [pc, #24]	; (8000e00 <HAL_FLASH_OB_Unlock+0x1c>)
 8000de6:	6918      	ldr	r0, [r3, #16]
 8000de8:	f410 7000 	ands.w	r0, r0, #512	; 0x200
 8000dec:	bf09      	itett	eq
 8000dee:	4a05      	ldreq	r2, [pc, #20]	; (8000e04 <HAL_FLASH_OB_Unlock+0x20>)
 8000df0:	2001      	movne	r0, #1
 8000df2:	609a      	streq	r2, [r3, #8]
 8000df4:	f102 3288 	addeq.w	r2, r2, #2290649224	; 0x88888888
 8000df8:	bf08      	it	eq
 8000dfa:	609a      	streq	r2, [r3, #8]
 8000dfc:	4770      	bx	lr
 8000dfe:	bf00      	nop
 8000e00:	40022000 	.word	0x40022000
 8000e04:	45670123 	.word	0x45670123

08000e08 <HAL_FLASH_OB_Lock>:
 8000e08:	4a03      	ldr	r2, [pc, #12]	; (8000e18 <HAL_FLASH_OB_Lock+0x10>)
 8000e0a:	2000      	movs	r0, #0
 8000e0c:	6913      	ldr	r3, [r2, #16]
 8000e0e:	f423 7300 	bic.w	r3, r3, #512	; 0x200
 8000e12:	6113      	str	r3, [r2, #16]
 8000e14:	4770      	bx	lr
 8000e16:	bf00      	nop
 8000e18:	40022000 	.word	0x40022000

08000e1c <FLASH_WaitForLastOperation>:
 8000e1c:	b5f8      	push	{r3, r4, r5, r6, r7, lr}
 8000e1e:	4604      	mov	r4, r0
 8000e20:	f7ff fea4 	bl	8000b6c <HAL_GetTick>
 8000e24:	4d11      	ldr	r5, [pc, #68]	; (8000e6c <FLASH_WaitForLastOperation+0x50>)
 8000e26:	4607      	mov	r7, r0
 8000e28:	462e      	mov	r6, r5
 8000e2a:	68eb      	ldr	r3, [r5, #12]
 8000e2c:	07d8      	lsls	r0, r3, #31
 8000e2e:	d412      	bmi.n	8000e56 <FLASH_WaitForLastOperation+0x3a>
 8000e30:	68eb      	ldr	r3, [r5, #12]
 8000e32:	0699      	lsls	r1, r3, #26
 8000e34:	bf44      	itt	mi
 8000e36:	2320      	movmi	r3, #32
 8000e38:	60eb      	strmi	r3, [r5, #12]
 8000e3a:	68f3      	ldr	r3, [r6, #12]
 8000e3c:	06da      	lsls	r2, r3, #27
 8000e3e:	d406      	bmi.n	8000e4e <FLASH_WaitForLastOperation+0x32>
 8000e40:	69f3      	ldr	r3, [r6, #28]
 8000e42:	07db      	lsls	r3, r3, #31
 8000e44:	d403      	bmi.n	8000e4e <FLASH_WaitForLastOperation+0x32>
 8000e46:	68f0      	ldr	r0, [r6, #12]
 8000e48:	f010 0004 	ands.w	r0, r0, #4
 8000e4c:	d007      	beq.n	8000e5e <FLASH_WaitForLastOperation+0x42>
 8000e4e:	f7ff ff85 	bl	8000d5c <FLASH_SetErrorCode>
 8000e52:	2001      	movs	r0, #1
 8000e54:	e003      	b.n	8000e5e <FLASH_WaitForLastOperation+0x42>
 8000e56:	1c63      	adds	r3, r4, #1
 8000e58:	d0e7      	beq.n	8000e2a <FLASH_WaitForLastOperation+0xe>
 8000e5a:	b90c      	cbnz	r4, 8000e60 <FLASH_WaitForLastOperation+0x44>
 8000e5c:	2003      	movs	r0, #3
 8000e5e:	bdf8      	pop	{r3, r4, r5, r6, r7, pc}
 8000e60:	f7ff fe84 	bl	8000b6c <HAL_GetTick>
 8000e64:	1bc0      	subs	r0, r0, r7
 8000e66:	42a0      	cmp	r0, r4
 8000e68:	d9df      	bls.n	8000e2a <FLASH_WaitForLastOperation+0xe>
 8000e6a:	e7f7      	b.n	8000e5c <FLASH_WaitForLastOperation+0x40>
 8000e6c:	40022000 	.word	0x40022000

08000e70 <HAL_FLASH_Program>:
 8000e70:	e92d 4ff8 	stmdb	sp!, {r3, r4, r5, r6, r7, r8, r9, sl, fp, lr}
 8000e74:	4e25      	ldr	r6, [pc, #148]	; (8000f0c <HAL_FLASH_Program+0x9c>)
 8000e76:	461f      	mov	r7, r3
 8000e78:	7e33      	ldrb	r3, [r6, #24]
 8000e7a:	4605      	mov	r5, r0
 8000e7c:	2b01      	cmp	r3, #1
 8000e7e:	4688      	mov	r8, r1
 8000e80:	4691      	mov	r9, r2
 8000e82:	d040      	beq.n	8000f06 <HAL_FLASH_Program+0x96>
 8000e84:	2301      	movs	r3, #1
 8000e86:	f24c 3050 	movw	r0, #50000	; 0xc350
 8000e8a:	7633      	strb	r3, [r6, #24]
 8000e8c:	f7ff ffc6 	bl	8000e1c <FLASH_WaitForLastOperation>
 8000e90:	bba8      	cbnz	r0, 8000efe <HAL_FLASH_Program+0x8e>
 8000e92:	2d01      	cmp	r5, #1
 8000e94:	d003      	beq.n	8000e9e <HAL_FLASH_Program+0x2e>
 8000e96:	2d02      	cmp	r5, #2
 8000e98:	bf0c      	ite	eq
 8000e9a:	2502      	moveq	r5, #2
 8000e9c:	2504      	movne	r5, #4
 8000e9e:	f04f 0a00 	mov.w	sl, #0
 8000ea2:	4653      	mov	r3, sl
 8000ea4:	f8df b068 	ldr.w	fp, [pc, #104]	; 8000f10 <HAL_FLASH_Program+0xa0>
 8000ea8:	ea4f 140a 	mov.w	r4, sl, lsl #4
 8000eac:	f1c4 0120 	rsb	r1, r4, #32
 8000eb0:	f1a4 0220 	sub.w	r2, r4, #32
 8000eb4:	fa07 f101 	lsl.w	r1, r7, r1
 8000eb8:	fa29 f404 	lsr.w	r4, r9, r4
 8000ebc:	61f3      	str	r3, [r6, #28]
 8000ebe:	430c      	orrs	r4, r1
 8000ec0:	fa27 f202 	lsr.w	r2, r7, r2
 8000ec4:	4314      	orrs	r4, r2
 8000ec6:	f8db 2010 	ldr.w	r2, [fp, #16]
 8000eca:	b2a4      	uxth	r4, r4
 8000ecc:	f042 0201 	orr.w	r2, r2, #1
 8000ed0:	f8cb 2010 	str.w	r2, [fp, #16]
 8000ed4:	f24c 3050 	movw	r0, #50000	; 0xc350
 8000ed8:	f828 401a 	strh.w	r4, [r8, sl, lsl #1]
 8000edc:	f7ff ff9e 	bl	8000e1c <FLASH_WaitForLastOperation>
 8000ee0:	f8db 2010 	ldr.w	r2, [fp, #16]
 8000ee4:	f022 0201 	bic.w	r2, r2, #1
 8000ee8:	f8cb 2010 	str.w	r2, [fp, #16]
 8000eec:	b938      	cbnz	r0, 8000efe <HAL_FLASH_Program+0x8e>
 8000eee:	f10a 0a01 	add.w	sl, sl, #1
 8000ef2:	fa5f f28a 	uxtb.w	r2, sl
 8000ef6:	4295      	cmp	r5, r2
 8000ef8:	f04f 0300 	mov.w	r3, #0
 8000efc:	d8d4      	bhi.n	8000ea8 <HAL_FLASH_Program+0x38>
 8000efe:	2300      	movs	r3, #0
 8000f00:	7633      	strb	r3, [r6, #24]
 8000f02:	e8bd 8ff8 	ldmia.w	sp!, {r3, r4, r5, r6, r7, r8, r9, sl, fp, pc}
 8000f06:	2002      	movs	r0, #2
 8000f08:	e7fb      	b.n	8000f02 <HAL_FLASH_Program+0x92>
 8000f0a:	bf00      	nop
 8000f0c:	20000418 	.word	0x20000418
 8000f10:	40022000 	.word	0x40022000

08000f14 <FLASH_MassErase.isra.0>:
 8000f14:	2200      	movs	r2, #0
 8000f16:	4b06      	ldr	r3, [pc, #24]	; (8000f30 <FLASH_MassErase.isra.0+0x1c>)
 8000f18:	61da      	str	r2, [r3, #28]
 8000f1a:	4b06      	ldr	r3, [pc, #24]	; (8000f34 <FLASH_MassErase.isra.0+0x20>)
 8000f1c:	691a      	ldr	r2, [r3, #16]
 8000f1e:	f042 0204 	orr.w	r2, r2, #4
 8000f22:	611a      	str	r2, [r3, #16]
 8000f24:	691a      	ldr	r2, [r3, #16]
 8000f26:	f042 0240 	orr.w	r2, r2, #64	; 0x40
 8000f2a:	611a      	str	r2, [r3, #16]
 8000f2c:	4770      	bx	lr
 8000f2e:	bf00      	nop
 8000f30:	20000418 	.word	0x20000418
 8000f34:	40022000 	.word	0x40022000

08000f38 <FLASH_PageErase>:
 8000f38:	2200      	movs	r2, #0
 8000f3a:	4b06      	ldr	r3, [pc, #24]	; (8000f54 <FLASH_PageErase+0x1c>)
 8000f3c:	61da      	str	r2, [r3, #28]
 8000f3e:	4b06      	ldr	r3, [pc, #24]	; (8000f58 <FLASH_PageErase+0x20>)
 8000f40:	691a      	ldr	r2, [r3, #16]
 8000f42:	f042 0202 	orr.w	r2, r2, #2
 8000f46:	611a      	str	r2, [r3, #16]
 8000f48:	6158      	str	r0, [r3, #20]
 8000f4a:	691a      	ldr	r2, [r3, #16]
 8000f4c:	f042 0240 	orr.w	r2, r2, #64	; 0x40
 8000f50:	611a      	str	r2, [r3, #16]
 8000f52:	4770      	bx	lr
 8000f54:	20000418 	.word	0x20000418
 8000f58:	40022000 	.word	0x40022000

08000f5c <HAL_FLASHEx_Erase>:
 8000f5c:	e92d 41f0 	stmdb	sp!, {r4, r5, r6, r7, r8, lr}
 8000f60:	4e22      	ldr	r6, [pc, #136]	; (8000fec <HAL_FLASHEx_Erase+0x90>)
 8000f62:	4605      	mov	r5, r0
 8000f64:	7e33      	ldrb	r3, [r6, #24]
 8000f66:	4688      	mov	r8, r1
 8000f68:	2b01      	cmp	r3, #1
 8000f6a:	d03d      	beq.n	8000fe8 <HAL_FLASHEx_Erase+0x8c>
 8000f6c:	2401      	movs	r4, #1
 8000f6e:	7634      	strb	r4, [r6, #24]
 8000f70:	6803      	ldr	r3, [r0, #0]
 8000f72:	f24c 3050 	movw	r0, #50000	; 0xc350
 8000f76:	2b02      	cmp	r3, #2
 8000f78:	d113      	bne.n	8000fa2 <HAL_FLASHEx_Erase+0x46>
 8000f7a:	f7ff ff4f 	bl	8000e1c <FLASH_WaitForLastOperation>
 8000f7e:	b120      	cbz	r0, 8000f8a <HAL_FLASHEx_Erase+0x2e>
 8000f80:	2001      	movs	r0, #1
 8000f82:	2300      	movs	r3, #0
 8000f84:	7633      	strb	r3, [r6, #24]
 8000f86:	e8bd 81f0 	ldmia.w	sp!, {r4, r5, r6, r7, r8, pc}
 8000f8a:	f7ff ffc3 	bl	8000f14 <FLASH_MassErase.isra.0>
 8000f8e:	f24c 3050 	movw	r0, #50000	; 0xc350
 8000f92:	f7ff ff43 	bl	8000e1c <FLASH_WaitForLastOperation>
 8000f96:	4a16      	ldr	r2, [pc, #88]	; (8000ff0 <HAL_FLASHEx_Erase+0x94>)
 8000f98:	6913      	ldr	r3, [r2, #16]
 8000f9a:	f023 0304 	bic.w	r3, r3, #4
 8000f9e:	6113      	str	r3, [r2, #16]
 8000fa0:	e7ef      	b.n	8000f82 <HAL_FLASHEx_Erase+0x26>
 8000fa2:	f7ff ff3b 	bl	8000e1c <FLASH_WaitForLastOperation>
 8000fa6:	2800      	cmp	r0, #0
 8000fa8:	d1ea      	bne.n	8000f80 <HAL_FLASHEx_Erase+0x24>
 8000faa:	f04f 33ff 	mov.w	r3, #4294967295
 8000fae:	f8c8 3000 	str.w	r3, [r8]
 8000fb2:	4620      	mov	r0, r4
 8000fb4:	68af      	ldr	r7, [r5, #8]
 8000fb6:	4c0e      	ldr	r4, [pc, #56]	; (8000ff0 <HAL_FLASHEx_Erase+0x94>)
 8000fb8:	e9d5 3202 	ldrd	r3, r2, [r5, #8]
 8000fbc:	eb03 2382 	add.w	r3, r3, r2, lsl #10
 8000fc0:	42bb      	cmp	r3, r7
 8000fc2:	d9de      	bls.n	8000f82 <HAL_FLASHEx_Erase+0x26>
 8000fc4:	4638      	mov	r0, r7
 8000fc6:	f7ff ffb7 	bl	8000f38 <FLASH_PageErase>
 8000fca:	f24c 3050 	movw	r0, #50000	; 0xc350
 8000fce:	f7ff ff25 	bl	8000e1c <FLASH_WaitForLastOperation>
 8000fd2:	6923      	ldr	r3, [r4, #16]
 8000fd4:	f023 0302 	bic.w	r3, r3, #2
 8000fd8:	6123      	str	r3, [r4, #16]
 8000fda:	b110      	cbz	r0, 8000fe2 <HAL_FLASHEx_Erase+0x86>
 8000fdc:	f8c8 7000 	str.w	r7, [r8]
 8000fe0:	e7cf      	b.n	8000f82 <HAL_FLASHEx_Erase+0x26>
 8000fe2:	f507 6780 	add.w	r7, r7, #1024	; 0x400
 8000fe6:	e7e7      	b.n	8000fb8 <HAL_FLASHEx_Erase+0x5c>
 8000fe8:	2002      	movs	r0, #2
 8000fea:	e7cc      	b.n	8000f86 <HAL_FLASHEx_Erase+0x2a>
 8000fec:	20000418 	.word	0x20000418
 8000ff0:	40022000 	.word	0x40022000

08000ff4 <HAL_GPIO_Init>:
 8000ff4:	e92d 4ff7 	stmdb	sp!, {r0, r1, r2, r4, r5, r6, r7, r8, r9, sl, fp, lr}
 8000ff8:	2200      	movs	r2, #0
 8000ffa:	4616      	mov	r6, r2
 8000ffc:	4b64      	ldr	r3, [pc, #400]	; (8001190 <HAL_GPIO_Init+0x19c>)
 8000ffe:	f8df c1a0 	ldr.w	ip, [pc, #416]	; 80011a0 <HAL_GPIO_Init+0x1ac>
 8001002:	f8df e1a0 	ldr.w	lr, [pc, #416]	; 80011a4 <HAL_GPIO_Init+0x1b0>
 8001006:	680d      	ldr	r5, [r1, #0]
 8001008:	fa35 f406 	lsrs.w	r4, r5, r6
 800100c:	d102      	bne.n	8001014 <HAL_GPIO_Init+0x20>
 800100e:	b003      	add	sp, #12
 8001010:	e8bd 8ff0 	ldmia.w	sp!, {r4, r5, r6, r7, r8, r9, sl, fp, pc}
 8001014:	f04f 0801 	mov.w	r8, #1
 8001018:	fa08 f806 	lsl.w	r8, r8, r6
 800101c:	ea05 0408 	and.w	r4, r5, r8
 8001020:	ea38 0505 	bics.w	r5, r8, r5
 8001024:	d17c      	bne.n	8001120 <HAL_GPIO_Init+0x12c>
 8001026:	684d      	ldr	r5, [r1, #4]
 8001028:	2d03      	cmp	r5, #3
 800102a:	d807      	bhi.n	800103c <HAL_GPIO_Init+0x48>
 800102c:	3d01      	subs	r5, #1
 800102e:	2d02      	cmp	r5, #2
 8001030:	f200 8088 	bhi.w	8001144 <HAL_GPIO_Init+0x150>
 8001034:	e8df f005 	tbb	[pc, r5]
 8001038:	9b96      	.short	0x9b96
 800103a:	a1          	.byte	0xa1
 800103b:	00          	.byte	0x00
 800103c:	2d12      	cmp	r5, #18
 800103e:	f000 8099 	beq.w	8001174 <HAL_GPIO_Init+0x180>
 8001042:	d86f      	bhi.n	8001124 <HAL_GPIO_Init+0x130>
 8001044:	2d11      	cmp	r5, #17
 8001046:	f000 808f 	beq.w	8001168 <HAL_GPIO_Init+0x174>
 800104a:	2cff      	cmp	r4, #255	; 0xff
 800104c:	bf98      	it	ls
 800104e:	4682      	movls	sl, r0
 8001050:	f04f 090f 	mov.w	r9, #15
 8001054:	bf88      	it	hi
 8001056:	f100 0a04 	addhi.w	sl, r0, #4
 800105a:	ea4f 0586 	mov.w	r5, r6, lsl #2
 800105e:	f8da 8000 	ldr.w	r8, [sl]
 8001062:	bf88      	it	hi
 8001064:	3d20      	subhi	r5, #32
 8001066:	fa09 fb05 	lsl.w	fp, r9, r5
 800106a:	ea28 080b 	bic.w	r8, r8, fp
 800106e:	fa02 f505 	lsl.w	r5, r2, r5
 8001072:	ea48 0505 	orr.w	r5, r8, r5
 8001076:	f8ca 5000 	str.w	r5, [sl]
 800107a:	f8d1 a004 	ldr.w	sl, [r1, #4]
 800107e:	f01a 5f80 	tst.w	sl, #268435456	; 0x10000000
 8001082:	d04d      	beq.n	8001120 <HAL_GPIO_Init+0x12c>
 8001084:	4f43      	ldr	r7, [pc, #268]	; (8001194 <HAL_GPIO_Init+0x1a0>)
 8001086:	f026 0803 	bic.w	r8, r6, #3
 800108a:	69bd      	ldr	r5, [r7, #24]
 800108c:	f108 4880 	add.w	r8, r8, #1073741824	; 0x40000000
 8001090:	f045 0501 	orr.w	r5, r5, #1
 8001094:	61bd      	str	r5, [r7, #24]
 8001096:	69bd      	ldr	r5, [r7, #24]
 8001098:	f508 3880 	add.w	r8, r8, #65536	; 0x10000
 800109c:	f005 0501 	and.w	r5, r5, #1
 80010a0:	9501      	str	r5, [sp, #4]
 80010a2:	f006 0b03 	and.w	fp, r6, #3
 80010a6:	9d01      	ldr	r5, [sp, #4]
 80010a8:	ea4f 0b8b 	mov.w	fp, fp, lsl #2
 80010ac:	f8d8 5008 	ldr.w	r5, [r8, #8]
 80010b0:	fa09 f90b 	lsl.w	r9, r9, fp
 80010b4:	ea25 0909 	bic.w	r9, r5, r9
 80010b8:	4d37      	ldr	r5, [pc, #220]	; (8001198 <HAL_GPIO_Init+0x1a4>)
 80010ba:	42a8      	cmp	r0, r5
 80010bc:	d061      	beq.n	8001182 <HAL_GPIO_Init+0x18e>
 80010be:	f505 6580 	add.w	r5, r5, #1024	; 0x400
 80010c2:	42a8      	cmp	r0, r5
 80010c4:	d05f      	beq.n	8001186 <HAL_GPIO_Init+0x192>
 80010c6:	f505 6580 	add.w	r5, r5, #1024	; 0x400
 80010ca:	42a8      	cmp	r0, r5
 80010cc:	d05d      	beq.n	800118a <HAL_GPIO_Init+0x196>
 80010ce:	f505 6580 	add.w	r5, r5, #1024	; 0x400
 80010d2:	42a8      	cmp	r0, r5
 80010d4:	bf0c      	ite	eq
 80010d6:	2503      	moveq	r5, #3
 80010d8:	2504      	movne	r5, #4
 80010da:	fa05 f50b 	lsl.w	r5, r5, fp
 80010de:	ea45 0509 	orr.w	r5, r5, r9
 80010e2:	f8c8 5008 	str.w	r5, [r8, #8]
 80010e6:	681d      	ldr	r5, [r3, #0]
 80010e8:	f41a 3f80 	tst.w	sl, #65536	; 0x10000
 80010ec:	bf14      	ite	ne
 80010ee:	4325      	orrne	r5, r4
 80010f0:	43a5      	biceq	r5, r4
 80010f2:	601d      	str	r5, [r3, #0]
 80010f4:	685d      	ldr	r5, [r3, #4]
 80010f6:	f41a 3f00 	tst.w	sl, #131072	; 0x20000
 80010fa:	bf14      	ite	ne
 80010fc:	4325      	orrne	r5, r4
 80010fe:	43a5      	biceq	r5, r4
 8001100:	605d      	str	r5, [r3, #4]
 8001102:	689d      	ldr	r5, [r3, #8]
 8001104:	f41a 1f80 	tst.w	sl, #1048576	; 0x100000
 8001108:	bf14      	ite	ne
 800110a:	4325      	orrne	r5, r4
 800110c:	43a5      	biceq	r5, r4
 800110e:	609d      	str	r5, [r3, #8]
 8001110:	68dd      	ldr	r5, [r3, #12]
 8001112:	f41a 1f00 	tst.w	sl, #2097152	; 0x200000
 8001116:	bf14      	ite	ne
 8001118:	432c      	orrne	r4, r5
 800111a:	ea25 0404 	biceq.w	r4, r5, r4
 800111e:	60dc      	str	r4, [r3, #12]
 8001120:	3601      	adds	r6, #1
 8001122:	e770      	b.n	8001006 <HAL_GPIO_Init+0x12>
 8001124:	4f1d      	ldr	r7, [pc, #116]	; (800119c <HAL_GPIO_Init+0x1a8>)
 8001126:	42bd      	cmp	r5, r7
 8001128:	d00c      	beq.n	8001144 <HAL_GPIO_Init+0x150>
 800112a:	d817      	bhi.n	800115c <HAL_GPIO_Init+0x168>
 800112c:	f8df 9078 	ldr.w	r9, [pc, #120]	; 80011a8 <HAL_GPIO_Init+0x1b4>
 8001130:	454d      	cmp	r5, r9
 8001132:	d007      	beq.n	8001144 <HAL_GPIO_Init+0x150>
 8001134:	f509 2970 	add.w	r9, r9, #983040	; 0xf0000
 8001138:	454d      	cmp	r5, r9
 800113a:	d003      	beq.n	8001144 <HAL_GPIO_Init+0x150>
 800113c:	f5a9 1980 	sub.w	r9, r9, #1048576	; 0x100000
 8001140:	454d      	cmp	r5, r9
 8001142:	d182      	bne.n	800104a <HAL_GPIO_Init+0x56>
 8001144:	688a      	ldr	r2, [r1, #8]
 8001146:	b1d2      	cbz	r2, 800117e <HAL_GPIO_Init+0x18a>
 8001148:	2a01      	cmp	r2, #1
 800114a:	bf08      	it	eq
 800114c:	f8c0 8010 	streq.w	r8, [r0, #16]
 8001150:	f04f 0208 	mov.w	r2, #8
 8001154:	bf18      	it	ne
 8001156:	f8c0 8014 	strne.w	r8, [r0, #20]
 800115a:	e776      	b.n	800104a <HAL_GPIO_Init+0x56>
 800115c:	4565      	cmp	r5, ip
 800115e:	d0f1      	beq.n	8001144 <HAL_GPIO_Init+0x150>
 8001160:	4575      	cmp	r5, lr
 8001162:	e7ee      	b.n	8001142 <HAL_GPIO_Init+0x14e>
 8001164:	68ca      	ldr	r2, [r1, #12]
 8001166:	e770      	b.n	800104a <HAL_GPIO_Init+0x56>
 8001168:	68ca      	ldr	r2, [r1, #12]
 800116a:	3204      	adds	r2, #4
 800116c:	e76d      	b.n	800104a <HAL_GPIO_Init+0x56>
 800116e:	68ca      	ldr	r2, [r1, #12]
 8001170:	3208      	adds	r2, #8
 8001172:	e76a      	b.n	800104a <HAL_GPIO_Init+0x56>
 8001174:	68ca      	ldr	r2, [r1, #12]
 8001176:	320c      	adds	r2, #12
 8001178:	e767      	b.n	800104a <HAL_GPIO_Init+0x56>
 800117a:	2200      	movs	r2, #0
 800117c:	e765      	b.n	800104a <HAL_GPIO_Init+0x56>
 800117e:	2204      	movs	r2, #4
 8001180:	e763      	b.n	800104a <HAL_GPIO_Init+0x56>
 8001182:	2500      	movs	r5, #0
 8001184:	e7a9      	b.n	80010da <HAL_GPIO_Init+0xe6>
 8001186:	2501      	movs	r5, #1
 8001188:	e7a7      	b.n	80010da <HAL_GPIO_Init+0xe6>
 800118a:	2502      	movs	r5, #2
 800118c:	e7a5      	b.n	80010da <HAL_GPIO_Init+0xe6>
 800118e:	bf00      	nop
 8001190:	40010400 	.word	0x40010400
 8001194:	40021000 	.word	0x40021000
 8001198:	40010800 	.word	0x40010800
 800119c:	10220000 	.word	0x10220000
 80011a0:	10310000 	.word	0x10310000
 80011a4:	10320000 	.word	0x10320000
 80011a8:	10120000 	.word	0x10120000

080011ac <HAL_GPIO_DeInit>:
 80011ac:	e92d 4ff7 	stmdb	sp!, {r0, r1, r2, r4, r5, r6, r7, r8, r9, sl, fp, lr}
 80011b0:	f04f 0b04 	mov.w	fp, #4
 80011b4:	2200      	movs	r2, #0
 80011b6:	f04f 0a01 	mov.w	sl, #1
 80011ba:	f04f 080f 	mov.w	r8, #15
 80011be:	eb00 030b 	add.w	r3, r0, fp
 80011c2:	9301      	str	r3, [sp, #4]
 80011c4:	4b2e      	ldr	r3, [pc, #184]	; (8001280 <HAL_GPIO_DeInit+0xd4>)
 80011c6:	fa31 f402 	lsrs.w	r4, r1, r2
 80011ca:	d102      	bne.n	80011d2 <HAL_GPIO_DeInit+0x26>
 80011cc:	b003      	add	sp, #12
 80011ce:	e8bd 8ff0 	ldmia.w	sp!, {r4, r5, r6, r7, r8, r9, sl, fp, pc}
 80011d2:	fa0a f702 	lsl.w	r7, sl, r2
 80011d6:	400f      	ands	r7, r1
 80011d8:	d049      	beq.n	800126e <HAL_GPIO_DeInit+0xc2>
 80011da:	f022 0403 	bic.w	r4, r2, #3
 80011de:	f104 4480 	add.w	r4, r4, #1073741824	; 0x40000000
 80011e2:	4d28      	ldr	r5, [pc, #160]	; (8001284 <HAL_GPIO_DeInit+0xd8>)
 80011e4:	f504 3480 	add.w	r4, r4, #65536	; 0x10000
 80011e8:	f002 0c03 	and.w	ip, r2, #3
 80011ec:	68a6      	ldr	r6, [r4, #8]
 80011ee:	ea4f 0c8c 	mov.w	ip, ip, lsl #2
 80011f2:	fa08 f90c 	lsl.w	r9, r8, ip
 80011f6:	42a8      	cmp	r0, r5
 80011f8:	ea09 0e06 	and.w	lr, r9, r6
 80011fc:	d039      	beq.n	8001272 <HAL_GPIO_DeInit+0xc6>
 80011fe:	f505 6580 	add.w	r5, r5, #1024	; 0x400
 8001202:	42a8      	cmp	r0, r5
 8001204:	d037      	beq.n	8001276 <HAL_GPIO_DeInit+0xca>
 8001206:	f505 6580 	add.w	r5, r5, #1024	; 0x400
 800120a:	42a8      	cmp	r0, r5
 800120c:	d035      	beq.n	800127a <HAL_GPIO_DeInit+0xce>
 800120e:	f505 6580 	add.w	r5, r5, #1024	; 0x400
 8001212:	42a8      	cmp	r0, r5
 8001214:	bf0c      	ite	eq
 8001216:	2503      	moveq	r5, #3
 8001218:	2504      	movne	r5, #4
 800121a:	fa05 f50c 	lsl.w	r5, r5, ip
 800121e:	4575      	cmp	r5, lr
 8001220:	ea6f 0607 	mvn.w	r6, r7
 8001224:	d10f      	bne.n	8001246 <HAL_GPIO_DeInit+0x9a>
 8001226:	68a5      	ldr	r5, [r4, #8]
 8001228:	ea25 0509 	bic.w	r5, r5, r9
 800122c:	60a5      	str	r5, [r4, #8]
 800122e:	681c      	ldr	r4, [r3, #0]
 8001230:	4034      	ands	r4, r6
 8001232:	601c      	str	r4, [r3, #0]
 8001234:	685c      	ldr	r4, [r3, #4]
 8001236:	4034      	ands	r4, r6
 8001238:	605c      	str	r4, [r3, #4]
 800123a:	689c      	ldr	r4, [r3, #8]
 800123c:	4034      	ands	r4, r6
 800123e:	609c      	str	r4, [r3, #8]
 8001240:	68dc      	ldr	r4, [r3, #12]
 8001242:	4034      	ands	r4, r6
 8001244:	60dc      	str	r4, [r3, #12]
 8001246:	2fff      	cmp	r7, #255	; 0xff
 8001248:	bf94      	ite	ls
 800124a:	4607      	movls	r7, r0
 800124c:	9f01      	ldrhi	r7, [sp, #4]
 800124e:	ea4f 0482 	mov.w	r4, r2, lsl #2
 8001252:	683d      	ldr	r5, [r7, #0]
 8001254:	bf88      	it	hi
 8001256:	3c20      	subhi	r4, #32
 8001258:	fa08 fc04 	lsl.w	ip, r8, r4
 800125c:	ea25 050c 	bic.w	r5, r5, ip
 8001260:	fa0b f404 	lsl.w	r4, fp, r4
 8001264:	4325      	orrs	r5, r4
 8001266:	603d      	str	r5, [r7, #0]
 8001268:	68c4      	ldr	r4, [r0, #12]
 800126a:	4026      	ands	r6, r4
 800126c:	60c6      	str	r6, [r0, #12]
 800126e:	3201      	adds	r2, #1
 8001270:	e7a9      	b.n	80011c6 <HAL_GPIO_DeInit+0x1a>
 8001272:	2500      	movs	r5, #0
 8001274:	e7d1      	b.n	800121a <HAL_GPIO_DeInit+0x6e>
 8001276:	2501      	movs	r5, #1
 8001278:	e7cf      	b.n	800121a <HAL_GPIO_DeInit+0x6e>
 800127a:	2502      	movs	r5, #2
 800127c:	e7cd      	b.n	800121a <HAL_GPIO_DeInit+0x6e>
 800127e:	bf00      	nop
 8001280:	40010400 	.word	0x40010400
 8001284:	40010800 	.word	0x40010800

08001288 <HAL_GPIO_WritePin>:
 8001288:	b10a      	cbz	r2, 800128e <HAL_GPIO_WritePin+0x6>
 800128a:	6101      	str	r1, [r0, #16]
 800128c:	4770      	bx	lr
 800128e:	0409      	lsls	r1, r1, #16
 8001290:	e7fb      	b.n	800128a <HAL_GPIO_WritePin+0x2>

08001292 <HAL_PCD_Init>:
 8001292:	b5f0      	push	{r4, r5, r6, r7, lr}
 8001294:	4604      	mov	r4, r0
 8001296:	b087      	sub	sp, #28
 8001298:	b310      	cbz	r0, 80012e0 <HAL_PCD_Init+0x4e>
 800129a:	f890 32a9 	ldrb.w	r3, [r0, #681]	; 0x2a9
 800129e:	f003 02ff 	and.w	r2, r3, #255	; 0xff
 80012a2:	b91b      	cbnz	r3, 80012ac <HAL_PCD_Init+0x1a>
 80012a4:	f880 22a8 	strb.w	r2, [r0, #680]	; 0x2a8
 80012a8:	f003 f91c 	bl	80044e4 <HAL_PCD_MspInit>
 80012ac:	2303      	movs	r3, #3
 80012ae:	4625      	mov	r5, r4
 80012b0:	466e      	mov	r6, sp
 80012b2:	f884 32a9 	strb.w	r3, [r4, #681]	; 0x2a9
 80012b6:	f855 0b10 	ldr.w	r0, [r5], #16
 80012ba:	f001 fc52 	bl	8002b62 <USB_DisableGlobalInt>
 80012be:	cd0f      	ldmia	r5!, {r0, r1, r2, r3}
 80012c0:	c60f      	stmia	r6!, {r0, r1, r2, r3}
 80012c2:	682b      	ldr	r3, [r5, #0]
 80012c4:	1d27      	adds	r7, r4, #4
 80012c6:	6033      	str	r3, [r6, #0]
 80012c8:	4626      	mov	r6, r4
 80012ca:	e897 000e 	ldmia.w	r7, {r1, r2, r3}
 80012ce:	f856 0b10 	ldr.w	r0, [r6], #16
 80012d2:	f001 fc36 	bl	8002b42 <USB_CoreInit>
 80012d6:	4605      	mov	r5, r0
 80012d8:	b120      	cbz	r0, 80012e4 <HAL_PCD_Init+0x52>
 80012da:	2302      	movs	r3, #2
 80012dc:	f884 32a9 	strb.w	r3, [r4, #681]	; 0x2a9
 80012e0:	2501      	movs	r5, #1
 80012e2:	e04c      	b.n	800137e <HAL_PCD_Init+0xec>
 80012e4:	4601      	mov	r1, r0
 80012e6:	6820      	ldr	r0, [r4, #0]
 80012e8:	f001 fc45 	bl	8002b76 <USB_SetCurrentMode>
 80012ec:	4629      	mov	r1, r5
 80012ee:	f04f 0e01 	mov.w	lr, #1
 80012f2:	2528      	movs	r5, #40	; 0x28
 80012f4:	4608      	mov	r0, r1
 80012f6:	f8d4 c004 	ldr.w	ip, [r4, #4]
 80012fa:	b2ca      	uxtb	r2, r1
 80012fc:	4594      	cmp	ip, r2
 80012fe:	f101 0101 	add.w	r1, r1, #1
 8001302:	d81b      	bhi.n	800133c <HAL_PCD_Init+0xaa>
 8001304:	2300      	movs	r3, #0
 8001306:	2528      	movs	r5, #40	; 0x28
 8001308:	4619      	mov	r1, r3
 800130a:	b2d8      	uxtb	r0, r3
 800130c:	4584      	cmp	ip, r0
 800130e:	f103 0301 	add.w	r3, r3, #1
 8001312:	d820      	bhi.n	8001356 <HAL_PCD_Init+0xc4>
 8001314:	46ec      	mov	ip, sp
 8001316:	4635      	mov	r5, r6
 8001318:	cd0f      	ldmia	r5!, {r0, r1, r2, r3}
 800131a:	e8ac 000f 	stmia.w	ip!, {r0, r1, r2, r3}
 800131e:	682b      	ldr	r3, [r5, #0]
 8001320:	f8cc 3000 	str.w	r3, [ip]
 8001324:	e897 000e 	ldmia.w	r7, {r1, r2, r3}
 8001328:	6820      	ldr	r0, [r4, #0]
 800132a:	f001 fc26 	bl	8002b7a <USB_DevInit>
 800132e:	2301      	movs	r3, #1
 8001330:	4605      	mov	r5, r0
 8001332:	b1e8      	cbz	r0, 8001370 <HAL_PCD_Init+0xde>
 8001334:	2202      	movs	r2, #2
 8001336:	f884 22a9 	strb.w	r2, [r4, #681]	; 0x2a9
 800133a:	e7d1      	b.n	80012e0 <HAL_PCD_Init+0x4e>
 800133c:	fb05 4302 	mla	r3, r5, r2, r4
 8001340:	e9c3 000e 	strd	r0, r0, [r3, #56]	; 0x38
 8001344:	f883 e029 	strb.w	lr, [r3, #41]	; 0x29
 8001348:	f883 2028 	strb.w	r2, [r3, #40]	; 0x28
 800134c:	86da      	strh	r2, [r3, #54]	; 0x36
 800134e:	f883 002b 	strb.w	r0, [r3, #43]	; 0x2b
 8001352:	6418      	str	r0, [r3, #64]	; 0x40
 8001354:	e7d1      	b.n	80012fa <HAL_PCD_Init+0x68>
 8001356:	fb05 4200 	mla	r2, r5, r0, r4
 800135a:	e9c2 115e 	strd	r1, r1, [r2, #376]	; 0x178
 800135e:	f882 1169 	strb.w	r1, [r2, #361]	; 0x169
 8001362:	f882 0168 	strb.w	r0, [r2, #360]	; 0x168
 8001366:	f882 116b 	strb.w	r1, [r2, #363]	; 0x16b
 800136a:	f8c2 1180 	str.w	r1, [r2, #384]	; 0x180
 800136e:	e7cc      	b.n	800130a <HAL_PCD_Init+0x78>
 8001370:	f884 0024 	strb.w	r0, [r4, #36]	; 0x24
 8001374:	6820      	ldr	r0, [r4, #0]
 8001376:	f884 32a9 	strb.w	r3, [r4, #681]	; 0x2a9
 800137a:	f001 fec8 	bl	800310e <USB_DevDisconnect>
 800137e:	4628      	mov	r0, r5
 8001380:	b007      	add	sp, #28
 8001382:	bdf0      	pop	{r4, r5, r6, r7, pc}

08001384 <HAL_PCD_DeInit>:
 8001384:	b538      	push	{r3, r4, r5, lr}
 8001386:	4604      	mov	r4, r0
 8001388:	b910      	cbnz	r0, 8001390 <HAL_PCD_DeInit+0xc>
 800138a:	2501      	movs	r5, #1
 800138c:	4628      	mov	r0, r5
 800138e:	bd38      	pop	{r3, r4, r5, pc}
 8001390:	2303      	movs	r3, #3
 8001392:	f880 32a9 	strb.w	r3, [r0, #681]	; 0x2a9
 8001396:	6800      	ldr	r0, [r0, #0]
 8001398:	f001 fea6 	bl	80030e8 <USB_StopDevice>
 800139c:	4605      	mov	r5, r0
 800139e:	2800      	cmp	r0, #0
 80013a0:	d1f3      	bne.n	800138a <HAL_PCD_DeInit+0x6>
 80013a2:	4620      	mov	r0, r4
 80013a4:	f003 f8be 	bl	8004524 <HAL_PCD_MspDeInit>
 80013a8:	f884 52a9 	strb.w	r5, [r4, #681]	; 0x2a9
 80013ac:	e7ee      	b.n	800138c <HAL_PCD_DeInit+0x8>

080013ae <HAL_PCD_Start>:
 80013ae:	b538      	push	{r3, r4, r5, lr}
 80013b0:	f890 32a8 	ldrb.w	r3, [r0, #680]	; 0x2a8
 80013b4:	4604      	mov	r4, r0
 80013b6:	2b01      	cmp	r3, #1
 80013b8:	d010      	beq.n	80013dc <HAL_PCD_Start+0x2e>
 80013ba:	2501      	movs	r5, #1
 80013bc:	f880 52a8 	strb.w	r5, [r0, #680]	; 0x2a8
 80013c0:	6800      	ldr	r0, [r0, #0]
 80013c2:	f001 fbc5 	bl	8002b50 <USB_EnableGlobalInt>
 80013c6:	4629      	mov	r1, r5
 80013c8:	4620      	mov	r0, r4
 80013ca:	f003 f9ea 	bl	80047a2 <HAL_PCDEx_SetConnectionState>
 80013ce:	6820      	ldr	r0, [r4, #0]
 80013d0:	f001 fe9b 	bl	800310a <USB_DevConnect>
 80013d4:	2000      	movs	r0, #0
 80013d6:	f884 02a8 	strb.w	r0, [r4, #680]	; 0x2a8
 80013da:	bd38      	pop	{r3, r4, r5, pc}
 80013dc:	2002      	movs	r0, #2
 80013de:	e7fc      	b.n	80013da <HAL_PCD_Start+0x2c>

080013e0 <HAL_PCD_Stop>:
 80013e0:	b510      	push	{r4, lr}
 80013e2:	f890 32a8 	ldrb.w	r3, [r0, #680]	; 0x2a8
 80013e6:	4604      	mov	r4, r0
 80013e8:	2b01      	cmp	r3, #1
 80013ea:	d010      	beq.n	800140e <HAL_PCD_Stop+0x2e>
 80013ec:	2301      	movs	r3, #1
 80013ee:	f880 32a8 	strb.w	r3, [r0, #680]	; 0x2a8
 80013f2:	6800      	ldr	r0, [r0, #0]
 80013f4:	f001 fbb5 	bl	8002b62 <USB_DisableGlobalInt>
 80013f8:	2100      	movs	r1, #0
 80013fa:	4620      	mov	r0, r4
 80013fc:	f003 f9d1 	bl	80047a2 <HAL_PCDEx_SetConnectionState>
 8001400:	6820      	ldr	r0, [r4, #0]
 8001402:	f001 fe84 	bl	800310e <USB_DevDisconnect>
 8001406:	2000      	movs	r0, #0
 8001408:	f884 02a8 	strb.w	r0, [r4, #680]	; 0x2a8
 800140c:	bd10      	pop	{r4, pc}
 800140e:	2002      	movs	r0, #2
 8001410:	e7fc      	b.n	800140c <HAL_PCD_Stop+0x2c>

08001412 <HAL_PCD_SetAddress>:
 8001412:	b510      	push	{r4, lr}
 8001414:	f890 22a8 	ldrb.w	r2, [r0, #680]	; 0x2a8
 8001418:	4604      	mov	r4, r0
 800141a:	2a01      	cmp	r2, #1
 800141c:	d00b      	beq.n	8001436 <HAL_PCD_SetAddress+0x24>
 800141e:	2201      	movs	r2, #1
 8001420:	f880 1024 	strb.w	r1, [r0, #36]	; 0x24
 8001424:	f880 22a8 	strb.w	r2, [r0, #680]	; 0x2a8
 8001428:	6800      	ldr	r0, [r0, #0]
 800142a:	f001 fe68 	bl	80030fe <USB_SetDevAddress>
 800142e:	2000      	movs	r0, #0
 8001430:	f884 02a8 	strb.w	r0, [r4, #680]	; 0x2a8
 8001434:	bd10      	pop	{r4, pc}
 8001436:	2002      	movs	r0, #2
 8001438:	e7fc      	b.n	8001434 <HAL_PCD_SetAddress+0x22>
	...

0800143c <HAL_PCD_IRQHandler>:
 800143c:	e92d 4ff0 	stmdb	sp!, {r4, r5, r6, r7, r8, r9, sl, fp, lr}
 8001440:	4604      	mov	r4, r0
 8001442:	b085      	sub	sp, #20
 8001444:	6800      	ldr	r0, [r0, #0]
 8001446:	f001 fe64 	bl	8003112 <USB_ReadInterrupts>
 800144a:	0400      	lsls	r0, r0, #16
 800144c:	d509      	bpl.n	8001462 <HAL_PCD_IRQHandler+0x26>
 800144e:	f8df 998c 	ldr.w	r9, [pc, #2444]	; 8001ddc <HAL_PCD_IRQHandler+0x9a0>
 8001452:	f8df 898c 	ldr.w	r8, [pc, #2444]	; 8001de0 <HAL_PCD_IRQHandler+0x9a4>
 8001456:	6820      	ldr	r0, [r4, #0]
 8001458:	f8b0 3044 	ldrh.w	r3, [r0, #68]	; 0x44
 800145c:	041d      	lsls	r5, r3, #16
 800145e:	f100 80c1 	bmi.w	80015e4 <HAL_PCD_IRQHandler+0x1a8>
 8001462:	6820      	ldr	r0, [r4, #0]
 8001464:	f001 fe55 	bl	8003112 <USB_ReadInterrupts>
 8001468:	0541      	lsls	r1, r0, #21
 800146a:	d50f      	bpl.n	800148c <HAL_PCD_IRQHandler+0x50>
 800146c:	6822      	ldr	r2, [r4, #0]
 800146e:	4620      	mov	r0, r4
 8001470:	f8b2 3044 	ldrh.w	r3, [r2, #68]	; 0x44
 8001474:	f423 6380 	bic.w	r3, r3, #1024	; 0x400
 8001478:	041b      	lsls	r3, r3, #16
 800147a:	0c1b      	lsrs	r3, r3, #16
 800147c:	f8a2 3044 	strh.w	r3, [r2, #68]	; 0x44
 8001480:	f003 f87d 	bl	800457e <HAL_PCD_ResetCallback>
 8001484:	2100      	movs	r1, #0
 8001486:	4620      	mov	r0, r4
 8001488:	f7ff ffc3 	bl	8001412 <HAL_PCD_SetAddress>
 800148c:	6820      	ldr	r0, [r4, #0]
 800148e:	f001 fe40 	bl	8003112 <USB_ReadInterrupts>
 8001492:	0441      	lsls	r1, r0, #17
 8001494:	d508      	bpl.n	80014a8 <HAL_PCD_IRQHandler+0x6c>
 8001496:	6822      	ldr	r2, [r4, #0]
 8001498:	f8b2 3044 	ldrh.w	r3, [r2, #68]	; 0x44
 800149c:	f423 4380 	bic.w	r3, r3, #16384	; 0x4000
 80014a0:	041b      	lsls	r3, r3, #16
 80014a2:	0c1b      	lsrs	r3, r3, #16
 80014a4:	f8a2 3044 	strh.w	r3, [r2, #68]	; 0x44
 80014a8:	6820      	ldr	r0, [r4, #0]
 80014aa:	f001 fe32 	bl	8003112 <USB_ReadInterrupts>
 80014ae:	0482      	lsls	r2, r0, #18
 80014b0:	d508      	bpl.n	80014c4 <HAL_PCD_IRQHandler+0x88>
 80014b2:	6822      	ldr	r2, [r4, #0]
 80014b4:	f8b2 3044 	ldrh.w	r3, [r2, #68]	; 0x44
 80014b8:	f423 5300 	bic.w	r3, r3, #8192	; 0x2000
 80014bc:	041b      	lsls	r3, r3, #16
 80014be:	0c1b      	lsrs	r3, r3, #16
 80014c0:	f8a2 3044 	strh.w	r3, [r2, #68]	; 0x44
 80014c4:	6820      	ldr	r0, [r4, #0]
 80014c6:	f001 fe24 	bl	8003112 <USB_ReadInterrupts>
 80014ca:	04c3      	lsls	r3, r0, #19
 80014cc:	d51c      	bpl.n	8001508 <HAL_PCD_IRQHandler+0xcc>
 80014ce:	6822      	ldr	r2, [r4, #0]
 80014d0:	4620      	mov	r0, r4
 80014d2:	f8b2 3040 	ldrh.w	r3, [r2, #64]	; 0x40
 80014d6:	f023 0304 	bic.w	r3, r3, #4
 80014da:	041b      	lsls	r3, r3, #16
 80014dc:	0c1b      	lsrs	r3, r3, #16
 80014de:	f8a2 3040 	strh.w	r3, [r2, #64]	; 0x40
 80014e2:	f8b2 3040 	ldrh.w	r3, [r2, #64]	; 0x40
 80014e6:	f023 0308 	bic.w	r3, r3, #8
 80014ea:	041b      	lsls	r3, r3, #16
 80014ec:	0c1b      	lsrs	r3, r3, #16
 80014ee:	f8a2 3040 	strh.w	r3, [r2, #64]	; 0x40
 80014f2:	f003 f867 	bl	80045c4 <HAL_PCD_ResumeCallback>
 80014f6:	6822      	ldr	r2, [r4, #0]
 80014f8:	f8b2 3044 	ldrh.w	r3, [r2, #68]	; 0x44
 80014fc:	f423 5380 	bic.w	r3, r3, #4096	; 0x1000
 8001500:	041b      	lsls	r3, r3, #16
 8001502:	0c1b      	lsrs	r3, r3, #16
 8001504:	f8a2 3044 	strh.w	r3, [r2, #68]	; 0x44
 8001508:	6820      	ldr	r0, [r4, #0]
 800150a:	f001 fe02 	bl	8003112 <USB_ReadInterrupts>
 800150e:	0507      	lsls	r7, r0, #20
 8001510:	d546      	bpl.n	80015a0 <HAL_PCD_IRQHandler+0x164>
 8001512:	4668      	mov	r0, sp
 8001514:	6823      	ldr	r3, [r4, #0]
 8001516:	4606      	mov	r6, r0
 8001518:	4619      	mov	r1, r3
 800151a:	461a      	mov	r2, r3
 800151c:	f103 0520 	add.w	r5, r3, #32
 8001520:	f832 7b04 	ldrh.w	r7, [r2], #4
 8001524:	4295      	cmp	r5, r2
 8001526:	f826 7b02 	strh.w	r7, [r6], #2
 800152a:	d1f9      	bne.n	8001520 <HAL_PCD_IRQHandler+0xe4>
 800152c:	f8b3 2040 	ldrh.w	r2, [r3, #64]	; 0x40
 8001530:	b292      	uxth	r2, r2
 8001532:	f042 0201 	orr.w	r2, r2, #1
 8001536:	f8a3 2040 	strh.w	r2, [r3, #64]	; 0x40
 800153a:	f8b3 2040 	ldrh.w	r2, [r3, #64]	; 0x40
 800153e:	f022 0201 	bic.w	r2, r2, #1
 8001542:	0412      	lsls	r2, r2, #16
 8001544:	0c12      	lsrs	r2, r2, #16
 8001546:	f8a3 2040 	strh.w	r2, [r3, #64]	; 0x40
 800154a:	f8b3 2044 	ldrh.w	r2, [r3, #68]	; 0x44
 800154e:	0556      	lsls	r6, r2, #21
 8001550:	d5fb      	bpl.n	800154a <HAL_PCD_IRQHandler+0x10e>
 8001552:	f8b3 2044 	ldrh.w	r2, [r3, #68]	; 0x44
 8001556:	f422 6280 	bic.w	r2, r2, #1024	; 0x400
 800155a:	0412      	lsls	r2, r2, #16
 800155c:	0c12      	lsrs	r2, r2, #16
 800155e:	f8a3 2044 	strh.w	r2, [r3, #68]	; 0x44
 8001562:	f830 2b02 	ldrh.w	r2, [r0], #2
 8001566:	f821 2b04 	strh.w	r2, [r1], #4
 800156a:	428d      	cmp	r5, r1
 800156c:	d1f9      	bne.n	8001562 <HAL_PCD_IRQHandler+0x126>
 800156e:	f8b3 2040 	ldrh.w	r2, [r3, #64]	; 0x40
 8001572:	4620      	mov	r0, r4
 8001574:	b292      	uxth	r2, r2
 8001576:	f042 0208 	orr.w	r2, r2, #8
 800157a:	f8a3 2040 	strh.w	r2, [r3, #64]	; 0x40
 800157e:	f8b3 2044 	ldrh.w	r2, [r3, #68]	; 0x44
 8001582:	f422 6200 	bic.w	r2, r2, #2048	; 0x800
 8001586:	0412      	lsls	r2, r2, #16
 8001588:	0c12      	lsrs	r2, r2, #16
 800158a:	f8a3 2044 	strh.w	r2, [r3, #68]	; 0x44
 800158e:	f8b3 2040 	ldrh.w	r2, [r3, #64]	; 0x40
 8001592:	b292      	uxth	r2, r2
 8001594:	f042 0204 	orr.w	r2, r2, #4
 8001598:	f8a3 2040 	strh.w	r2, [r3, #64]	; 0x40
 800159c:	f003 f802 	bl	80045a4 <HAL_PCD_SuspendCallback>
 80015a0:	6820      	ldr	r0, [r4, #0]
 80015a2:	f001 fdb6 	bl	8003112 <USB_ReadInterrupts>
 80015a6:	0582      	lsls	r2, r0, #22
 80015a8:	d50b      	bpl.n	80015c2 <HAL_PCD_IRQHandler+0x186>
 80015aa:	6822      	ldr	r2, [r4, #0]
 80015ac:	4620      	mov	r0, r4
 80015ae:	f8b2 3044 	ldrh.w	r3, [r2, #68]	; 0x44
 80015b2:	f423 7300 	bic.w	r3, r3, #512	; 0x200
 80015b6:	041b      	lsls	r3, r3, #16
 80015b8:	0c1b      	lsrs	r3, r3, #16
 80015ba:	f8a2 3044 	strh.w	r3, [r2, #68]	; 0x44
 80015be:	f002 ffda 	bl	8004576 <HAL_PCD_SOFCallback>
 80015c2:	6820      	ldr	r0, [r4, #0]
 80015c4:	f001 fda5 	bl	8003112 <USB_ReadInterrupts>
 80015c8:	05c3      	lsls	r3, r0, #23
 80015ca:	d508      	bpl.n	80015de <HAL_PCD_IRQHandler+0x1a2>
 80015cc:	6822      	ldr	r2, [r4, #0]
 80015ce:	f8b2 3044 	ldrh.w	r3, [r2, #68]	; 0x44
 80015d2:	f423 7380 	bic.w	r3, r3, #256	; 0x100
 80015d6:	041b      	lsls	r3, r3, #16
 80015d8:	0c1b      	lsrs	r3, r3, #16
 80015da:	f8a2 3044 	strh.w	r3, [r2, #68]	; 0x44
 80015de:	b005      	add	sp, #20
 80015e0:	e8bd 8ff0 	ldmia.w	sp!, {r4, r5, r6, r7, r8, r9, sl, fp, pc}
 80015e4:	f8b0 6044 	ldrh.w	r6, [r0, #68]	; 0x44
 80015e8:	b2b1      	uxth	r1, r6
 80015ea:	f016 060f 	ands.w	r6, r6, #15
 80015ee:	f040 80bd 	bne.w	800176c <HAL_PCD_IRQHandler+0x330>
 80015f2:	f011 0110 	ands.w	r1, r1, #16
 80015f6:	d12d      	bne.n	8001654 <HAL_PCD_IRQHandler+0x218>
 80015f8:	8803      	ldrh	r3, [r0, #0]
 80015fa:	b29b      	uxth	r3, r3
 80015fc:	ea03 0309 	and.w	r3, r3, r9
 8001600:	f443 4300 	orr.w	r3, r3, #32768	; 0x8000
 8001604:	8003      	strh	r3, [r0, #0]
 8001606:	f8b0 3050 	ldrh.w	r3, [r0, #80]	; 0x50
 800160a:	f894 2028 	ldrb.w	r2, [r4, #40]	; 0x28
 800160e:	b29b      	uxth	r3, r3
 8001610:	eb03 03c2 	add.w	r3, r3, r2, lsl #3
 8001614:	eb00 0043 	add.w	r0, r0, r3, lsl #1
 8001618:	f8b0 3404 	ldrh.w	r3, [r0, #1028]	; 0x404
 800161c:	6be2      	ldr	r2, [r4, #60]	; 0x3c
 800161e:	f3c3 0309 	ubfx	r3, r3, #0, #10
 8001622:	6463      	str	r3, [r4, #68]	; 0x44
 8001624:	4413      	add	r3, r2
 8001626:	63e3      	str	r3, [r4, #60]	; 0x3c
 8001628:	4620      	mov	r0, r4
 800162a:	f002 ff9c 	bl	8004566 <HAL_PCD_DataInStageCallback>
 800162e:	f894 3024 	ldrb.w	r3, [r4, #36]	; 0x24
 8001632:	2b00      	cmp	r3, #0
 8001634:	f43f af0f 	beq.w	8001456 <HAL_PCD_IRQHandler+0x1a>
 8001638:	6c22      	ldr	r2, [r4, #64]	; 0x40
 800163a:	2a00      	cmp	r2, #0
 800163c:	f47f af0b 	bne.w	8001456 <HAL_PCD_IRQHandler+0x1a>
 8001640:	f894 3024 	ldrb.w	r3, [r4, #36]	; 0x24
 8001644:	6821      	ldr	r1, [r4, #0]
 8001646:	f043 0380 	orr.w	r3, r3, #128	; 0x80
 800164a:	f8a1 304c 	strh.w	r3, [r1, #76]	; 0x4c
 800164e:	f884 2024 	strb.w	r2, [r4, #36]	; 0x24
 8001652:	e700      	b.n	8001456 <HAL_PCD_IRQHandler+0x1a>
 8001654:	8805      	ldrh	r5, [r0, #0]
 8001656:	b2ab      	uxth	r3, r5
 8001658:	f415 6500 	ands.w	r5, r5, #2048	; 0x800
 800165c:	d021      	beq.n	80016a2 <HAL_PCD_IRQHandler+0x266>
 800165e:	f8b0 3050 	ldrh.w	r3, [r0, #80]	; 0x50
 8001662:	f894 2168 	ldrb.w	r2, [r4, #360]	; 0x168
 8001666:	b29b      	uxth	r3, r3
 8001668:	eb03 03c2 	add.w	r3, r3, r2, lsl #3
 800166c:	eb00 0343 	add.w	r3, r0, r3, lsl #1
 8001670:	f8b3 340c 	ldrh.w	r3, [r3, #1036]	; 0x40c
 8001674:	f8b4 216e 	ldrh.w	r2, [r4, #366]	; 0x16e
 8001678:	f3c3 0309 	ubfx	r3, r3, #0, #10
 800167c:	f8c4 3184 	str.w	r3, [r4, #388]	; 0x184
 8001680:	f504 712c 	add.w	r1, r4, #688	; 0x2b0
 8001684:	f002 f8ea 	bl	800385c <USB_ReadPMA>
 8001688:	6822      	ldr	r2, [r4, #0]
 800168a:	4620      	mov	r0, r4
 800168c:	8813      	ldrh	r3, [r2, #0]
 800168e:	f023 0370 	bic.w	r3, r3, #112	; 0x70
 8001692:	051b      	lsls	r3, r3, #20
 8001694:	0d1b      	lsrs	r3, r3, #20
 8001696:	f043 0380 	orr.w	r3, r3, #128	; 0x80
 800169a:	8013      	strh	r3, [r2, #0]
 800169c:	f002 ff54 	bl	8004548 <HAL_PCD_SetupStageCallback>
 80016a0:	e6d9      	b.n	8001456 <HAL_PCD_IRQHandler+0x1a>
 80016a2:	041a      	lsls	r2, r3, #16
 80016a4:	f57f aed7 	bpl.w	8001456 <HAL_PCD_IRQHandler+0x1a>
 80016a8:	8803      	ldrh	r3, [r0, #0]
 80016aa:	f023 0370 	bic.w	r3, r3, #112	; 0x70
 80016ae:	051b      	lsls	r3, r3, #20
 80016b0:	0d1b      	lsrs	r3, r3, #20
 80016b2:	f043 0380 	orr.w	r3, r3, #128	; 0x80
 80016b6:	8003      	strh	r3, [r0, #0]
 80016b8:	f8b0 3050 	ldrh.w	r3, [r0, #80]	; 0x50
 80016bc:	f894 2168 	ldrb.w	r2, [r4, #360]	; 0x168
 80016c0:	b29b      	uxth	r3, r3
 80016c2:	eb03 03c2 	add.w	r3, r3, r2, lsl #3
 80016c6:	eb00 0343 	add.w	r3, r0, r3, lsl #1
 80016ca:	f8b3 340c 	ldrh.w	r3, [r3, #1036]	; 0x40c
 80016ce:	f3c3 0309 	ubfx	r3, r3, #0, #10
 80016d2:	f8c4 3184 	str.w	r3, [r4, #388]	; 0x184
 80016d6:	b18b      	cbz	r3, 80016fc <HAL_PCD_IRQHandler+0x2c0>
 80016d8:	f8d4 117c 	ldr.w	r1, [r4, #380]	; 0x17c
 80016dc:	b171      	cbz	r1, 80016fc <HAL_PCD_IRQHandler+0x2c0>
 80016de:	f8b4 216e 	ldrh.w	r2, [r4, #366]	; 0x16e
 80016e2:	f002 f8bb 	bl	800385c <USB_ReadPMA>
 80016e6:	f8d4 317c 	ldr.w	r3, [r4, #380]	; 0x17c
 80016ea:	f8d4 2184 	ldr.w	r2, [r4, #388]	; 0x184
 80016ee:	4629      	mov	r1, r5
 80016f0:	4413      	add	r3, r2
 80016f2:	4620      	mov	r0, r4
 80016f4:	f8c4 317c 	str.w	r3, [r4, #380]	; 0x17c
 80016f8:	f002 ff2c 	bl	8004554 <HAL_PCD_DataOutStageCallback>
 80016fc:	6821      	ldr	r1, [r4, #0]
 80016fe:	880b      	ldrh	r3, [r1, #0]
 8001700:	051b      	lsls	r3, r3, #20
 8001702:	f53f aea8 	bmi.w	8001456 <HAL_PCD_IRQHandler+0x1a>
 8001706:	f8b1 3050 	ldrh.w	r3, [r1, #80]	; 0x50
 800170a:	f8d4 5178 	ldr.w	r5, [r4, #376]	; 0x178
 800170e:	b29b      	uxth	r3, r3
 8001710:	f201 400c 	addw	r0, r1, #1036	; 0x40c
 8001714:	b9cd      	cbnz	r5, 800174a <HAL_PCD_IRQHandler+0x30e>
 8001716:	5ac2      	ldrh	r2, [r0, r3]
 8001718:	f422 42f8 	bic.w	r2, r2, #31744	; 0x7c00
 800171c:	0412      	lsls	r2, r2, #16
 800171e:	0c12      	lsrs	r2, r2, #16
 8001720:	52c2      	strh	r2, [r0, r3]
 8001722:	5ac2      	ldrh	r2, [r0, r3]
 8001724:	b292      	uxth	r2, r2
 8001726:	f442 4200 	orr.w	r2, r2, #32768	; 0x8000
 800172a:	52c2      	strh	r2, [r0, r3]
 800172c:	880b      	ldrh	r3, [r1, #0]
 800172e:	f423 4380 	bic.w	r3, r3, #16384	; 0x4000
 8001732:	f023 0370 	bic.w	r3, r3, #112	; 0x70
 8001736:	041b      	lsls	r3, r3, #16
 8001738:	0c1b      	lsrs	r3, r3, #16
 800173a:	f483 5340 	eor.w	r3, r3, #12288	; 0x3000
 800173e:	f443 4300 	orr.w	r3, r3, #32768	; 0x8000
 8001742:	f043 0380 	orr.w	r3, r3, #128	; 0x80
 8001746:	800b      	strh	r3, [r1, #0]
 8001748:	e685      	b.n	8001456 <HAL_PCD_IRQHandler+0x1a>
 800174a:	2d3e      	cmp	r5, #62	; 0x3e
 800174c:	d806      	bhi.n	800175c <HAL_PCD_IRQHandler+0x320>
 800174e:	086a      	lsrs	r2, r5, #1
 8001750:	07ef      	lsls	r7, r5, #31
 8001752:	bf48      	it	mi
 8001754:	3201      	addmi	r2, #1
 8001756:	0292      	lsls	r2, r2, #10
 8001758:	b292      	uxth	r2, r2
 800175a:	e7e6      	b.n	800172a <HAL_PCD_IRQHandler+0x2ee>
 800175c:	096a      	lsrs	r2, r5, #5
 800175e:	06ee      	lsls	r6, r5, #27
 8001760:	bf08      	it	eq
 8001762:	f102 32ff 	addeq.w	r2, r2, #4294967295
 8001766:	ea48 2282 	orr.w	r2, r8, r2, lsl #10
 800176a:	e7f5      	b.n	8001758 <HAL_PCD_IRQHandler+0x31c>
 800176c:	f830 3026 	ldrh.w	r3, [r0, r6, lsl #2]
 8001770:	041d      	lsls	r5, r3, #16
 8001772:	b29f      	uxth	r7, r3
 8001774:	f140 80f8 	bpl.w	8001968 <HAL_PCD_IRQHandler+0x52c>
 8001778:	2128      	movs	r1, #40	; 0x28
 800177a:	f830 3026 	ldrh.w	r3, [r0, r6, lsl #2]
 800177e:	fb01 4106 	mla	r1, r1, r6, r4
 8001782:	f023 0370 	bic.w	r3, r3, #112	; 0x70
 8001786:	051b      	lsls	r3, r3, #20
 8001788:	0d1b      	lsrs	r3, r3, #20
 800178a:	f043 0380 	orr.w	r3, r3, #128	; 0x80
 800178e:	f820 3026 	strh.w	r3, [r0, r6, lsl #2]
 8001792:	f891 3174 	ldrb.w	r3, [r1, #372]	; 0x174
 8001796:	f500 6580 	add.w	r5, r0, #1024	; 0x400
 800179a:	b9b3      	cbnz	r3, 80017ca <HAL_PCD_IRQHandler+0x38e>
 800179c:	f8b0 3050 	ldrh.w	r3, [r0, #80]	; 0x50
 80017a0:	f891 2168 	ldrb.w	r2, [r1, #360]	; 0x168
 80017a4:	b29b      	uxth	r3, r3
 80017a6:	3306      	adds	r3, #6
 80017a8:	eb03 03c2 	add.w	r3, r3, r2, lsl #3
 80017ac:	f835 5013 	ldrh.w	r5, [r5, r3, lsl #1]
 80017b0:	f3c5 0509 	ubfx	r5, r5, #0, #10
 80017b4:	2d00      	cmp	r5, #0
 80017b6:	f000 80bb 	beq.w	8001930 <HAL_PCD_IRQHandler+0x4f4>
 80017ba:	462b      	mov	r3, r5
 80017bc:	f8b1 216e 	ldrh.w	r2, [r1, #366]	; 0x16e
 80017c0:	f8d1 117c 	ldr.w	r1, [r1, #380]	; 0x17c
 80017c4:	f002 f84a 	bl	800385c <USB_ReadPMA>
 80017c8:	e0b2      	b.n	8001930 <HAL_PCD_IRQHandler+0x4f4>
 80017ca:	f891 316b 	ldrb.w	r3, [r1, #363]	; 0x16b
 80017ce:	f891 c168 	ldrb.w	ip, [r1, #360]	; 0x168
 80017d2:	2b02      	cmp	r3, #2
 80017d4:	f040 808b 	bne.w	80018ee <HAL_PCD_IRQHandler+0x4b2>
 80017d8:	f8b0 3050 	ldrh.w	r3, [r0, #80]	; 0x50
 80017dc:	f417 4a80 	ands.w	sl, r7, #16384	; 0x4000
 80017e0:	f8d1 2180 	ldr.w	r2, [r1, #384]	; 0x180
 80017e4:	ea4f 0bcc 	mov.w	fp, ip, lsl #3
 80017e8:	b29b      	uxth	r3, r3
 80017ea:	f007 0e40 	and.w	lr, r7, #64	; 0x40
 80017ee:	d040      	beq.n	8001872 <HAL_PCD_IRQHandler+0x436>
 80017f0:	449b      	add	fp, r3
 80017f2:	f10b 0b02 	add.w	fp, fp, #2
 80017f6:	f835 501b 	ldrh.w	r5, [r5, fp, lsl #1]
 80017fa:	f3c5 0509 	ubfx	r5, r5, #0, #10
 80017fe:	4295      	cmp	r5, r2
 8001800:	d913      	bls.n	800182a <HAL_PCD_IRQHandler+0x3ee>
 8001802:	2300      	movs	r3, #0
 8001804:	f8c1 3180 	str.w	r3, [r1, #384]	; 0x180
 8001808:	f830 302c 	ldrh.w	r3, [r0, ip, lsl #2]
 800180c:	f423 4380 	bic.w	r3, r3, #16384	; 0x4000
 8001810:	f023 0370 	bic.w	r3, r3, #112	; 0x70
 8001814:	041b      	lsls	r3, r3, #16
 8001816:	0c1b      	lsrs	r3, r3, #16
 8001818:	f483 5300 	eor.w	r3, r3, #8192	; 0x2000
 800181c:	f443 4300 	orr.w	r3, r3, #32768	; 0x8000
 8001820:	f043 0380 	orr.w	r3, r3, #128	; 0x80
 8001824:	f820 302c 	strh.w	r3, [r0, ip, lsl #2]
 8001828:	e004      	b.n	8001834 <HAL_PCD_IRQHandler+0x3f8>
 800182a:	1b52      	subs	r2, r2, r5
 800182c:	f8c1 2180 	str.w	r2, [r1, #384]	; 0x180
 8001830:	2a00      	cmp	r2, #0
 8001832:	d0e9      	beq.n	8001808 <HAL_PCD_IRQHandler+0x3cc>
 8001834:	f1be 0f00 	cmp.w	lr, #0
 8001838:	d012      	beq.n	8001860 <HAL_PCD_IRQHandler+0x424>
 800183a:	2328      	movs	r3, #40	; 0x28
 800183c:	fb03 4306 	mla	r3, r3, r6, r4
 8001840:	f893 2168 	ldrb.w	r2, [r3, #360]	; 0x168
 8001844:	f830 3022 	ldrh.w	r3, [r0, r2, lsl #2]
 8001848:	f423 43e0 	bic.w	r3, r3, #28672	; 0x7000
 800184c:	f023 0370 	bic.w	r3, r3, #112	; 0x70
 8001850:	041b      	lsls	r3, r3, #16
 8001852:	0c1b      	lsrs	r3, r3, #16
 8001854:	f443 4300 	orr.w	r3, r3, #32768	; 0x8000
 8001858:	f043 03c0 	orr.w	r3, r3, #192	; 0xc0
 800185c:	f820 3022 	strh.w	r3, [r0, r2, lsl #2]
 8001860:	2d00      	cmp	r5, #0
 8001862:	d065      	beq.n	8001930 <HAL_PCD_IRQHandler+0x4f4>
 8001864:	2128      	movs	r1, #40	; 0x28
 8001866:	fb01 4106 	mla	r1, r1, r6, r4
 800186a:	462b      	mov	r3, r5
 800186c:	f8b1 2170 	ldrh.w	r2, [r1, #368]	; 0x170
 8001870:	e7a6      	b.n	80017c0 <HAL_PCD_IRQHandler+0x384>
 8001872:	445b      	add	r3, fp
 8001874:	3306      	adds	r3, #6
 8001876:	f835 5013 	ldrh.w	r5, [r5, r3, lsl #1]
 800187a:	f3c5 0509 	ubfx	r5, r5, #0, #10
 800187e:	4295      	cmp	r5, r2
 8001880:	d912      	bls.n	80018a8 <HAL_PCD_IRQHandler+0x46c>
 8001882:	f8c1 a180 	str.w	sl, [r1, #384]	; 0x180
 8001886:	f830 302c 	ldrh.w	r3, [r0, ip, lsl #2]
 800188a:	f423 4380 	bic.w	r3, r3, #16384	; 0x4000
 800188e:	f023 0370 	bic.w	r3, r3, #112	; 0x70
 8001892:	041b      	lsls	r3, r3, #16
 8001894:	0c1b      	lsrs	r3, r3, #16
 8001896:	f483 5300 	eor.w	r3, r3, #8192	; 0x2000
 800189a:	f443 4300 	orr.w	r3, r3, #32768	; 0x8000
 800189e:	f043 0380 	orr.w	r3, r3, #128	; 0x80
 80018a2:	f820 302c 	strh.w	r3, [r0, ip, lsl #2]
 80018a6:	e004      	b.n	80018b2 <HAL_PCD_IRQHandler+0x476>
 80018a8:	1b52      	subs	r2, r2, r5
 80018aa:	f8c1 2180 	str.w	r2, [r1, #384]	; 0x180
 80018ae:	2a00      	cmp	r2, #0
 80018b0:	d0e9      	beq.n	8001886 <HAL_PCD_IRQHandler+0x44a>
 80018b2:	f1be 0f00 	cmp.w	lr, #0
 80018b6:	d112      	bne.n	80018de <HAL_PCD_IRQHandler+0x4a2>
 80018b8:	2328      	movs	r3, #40	; 0x28
 80018ba:	fb03 4306 	mla	r3, r3, r6, r4
 80018be:	f893 2168 	ldrb.w	r2, [r3, #360]	; 0x168
 80018c2:	f830 3022 	ldrh.w	r3, [r0, r2, lsl #2]
 80018c6:	f423 43e0 	bic.w	r3, r3, #28672	; 0x7000
 80018ca:	f023 0370 	bic.w	r3, r3, #112	; 0x70
 80018ce:	041b      	lsls	r3, r3, #16
 80018d0:	0c1b      	lsrs	r3, r3, #16
 80018d2:	f443 4300 	orr.w	r3, r3, #32768	; 0x8000
 80018d6:	f043 03c0 	orr.w	r3, r3, #192	; 0xc0
 80018da:	f820 3022 	strh.w	r3, [r0, r2, lsl #2]
 80018de:	b33d      	cbz	r5, 8001930 <HAL_PCD_IRQHandler+0x4f4>
 80018e0:	2128      	movs	r1, #40	; 0x28
 80018e2:	fb01 4106 	mla	r1, r1, r6, r4
 80018e6:	462b      	mov	r3, r5
 80018e8:	f8b1 2172 	ldrh.w	r2, [r1, #370]	; 0x172
 80018ec:	e768      	b.n	80017c0 <HAL_PCD_IRQHandler+0x384>
 80018ee:	f830 302c 	ldrh.w	r3, [r0, ip, lsl #2]
 80018f2:	f423 43e0 	bic.w	r3, r3, #28672	; 0x7000
 80018f6:	f023 0370 	bic.w	r3, r3, #112	; 0x70
 80018fa:	041b      	lsls	r3, r3, #16
 80018fc:	0c1b      	lsrs	r3, r3, #16
 80018fe:	f443 4300 	orr.w	r3, r3, #32768	; 0x8000
 8001902:	f043 03c0 	orr.w	r3, r3, #192	; 0xc0
 8001906:	f820 302c 	strh.w	r3, [r0, ip, lsl #2]
 800190a:	f891 3168 	ldrb.w	r3, [r1, #360]	; 0x168
 800190e:	f830 2023 	ldrh.w	r2, [r0, r3, lsl #2]
 8001912:	00db      	lsls	r3, r3, #3
 8001914:	f412 4f80 	tst.w	r2, #16384	; 0x4000
 8001918:	f8b0 2050 	ldrh.w	r2, [r0, #80]	; 0x50
 800191c:	b292      	uxth	r2, r2
 800191e:	d059      	beq.n	80019d4 <HAL_PCD_IRQHandler+0x598>
 8001920:	3202      	adds	r2, #2
 8001922:	4413      	add	r3, r2
 8001924:	f835 5013 	ldrh.w	r5, [r5, r3, lsl #1]
 8001928:	f3c5 0509 	ubfx	r5, r5, #0, #10
 800192c:	2d00      	cmp	r5, #0
 800192e:	d19c      	bne.n	800186a <HAL_PCD_IRQHandler+0x42e>
 8001930:	2128      	movs	r1, #40	; 0x28
 8001932:	4371      	muls	r1, r6
 8001934:	1863      	adds	r3, r4, r1
 8001936:	f8d3 2184 	ldr.w	r2, [r3, #388]	; 0x184
 800193a:	442a      	add	r2, r5
 800193c:	f8c3 2184 	str.w	r2, [r3, #388]	; 0x184
 8001940:	f8d3 217c 	ldr.w	r2, [r3, #380]	; 0x17c
 8001944:	442a      	add	r2, r5
 8001946:	f8c3 217c 	str.w	r2, [r3, #380]	; 0x17c
 800194a:	f8d3 2180 	ldr.w	r2, [r3, #384]	; 0x180
 800194e:	b11a      	cbz	r2, 8001958 <HAL_PCD_IRQHandler+0x51c>
 8001950:	f8d3 3178 	ldr.w	r3, [r3, #376]	; 0x178
 8001954:	429d      	cmp	r5, r3
 8001956:	d246      	bcs.n	80019e6 <HAL_PCD_IRQHandler+0x5aa>
 8001958:	2328      	movs	r3, #40	; 0x28
 800195a:	fb03 4306 	mla	r3, r3, r6, r4
 800195e:	4620      	mov	r0, r4
 8001960:	f893 1168 	ldrb.w	r1, [r3, #360]	; 0x168
 8001964:	f002 fdf6 	bl	8004554 <HAL_PCD_DataOutStageCallback>
 8001968:	0638      	lsls	r0, r7, #24
 800196a:	f57f ad74 	bpl.w	8001456 <HAL_PCD_IRQHandler+0x1a>
 800196e:	2528      	movs	r5, #40	; 0x28
 8001970:	6820      	ldr	r0, [r4, #0]
 8001972:	fb05 4506 	mla	r5, r5, r6, r4
 8001976:	f830 3026 	ldrh.w	r3, [r0, r6, lsl #2]
 800197a:	b29b      	uxth	r3, r3
 800197c:	ea03 0309 	and.w	r3, r3, r9
 8001980:	f443 4300 	orr.w	r3, r3, #32768	; 0x8000
 8001984:	f820 3026 	strh.w	r3, [r0, r6, lsl #2]
 8001988:	f895 202b 	ldrb.w	r2, [r5, #43]	; 0x2b
 800198c:	f895 3028 	ldrb.w	r3, [r5, #40]	; 0x28
 8001990:	2a03      	cmp	r2, #3
 8001992:	d004      	beq.n	800199e <HAL_PCD_IRQHandler+0x562>
 8001994:	b11a      	cbz	r2, 800199e <HAL_PCD_IRQHandler+0x562>
 8001996:	2a02      	cmp	r2, #2
 8001998:	d13d      	bne.n	8001a16 <HAL_PCD_IRQHandler+0x5da>
 800199a:	05f9      	lsls	r1, r7, #23
 800199c:	d43b      	bmi.n	8001a16 <HAL_PCD_IRQHandler+0x5da>
 800199e:	2128      	movs	r1, #40	; 0x28
 80019a0:	f8b0 2050 	ldrh.w	r2, [r0, #80]	; 0x50
 80019a4:	fb01 4706 	mla	r7, r1, r6, r4
 80019a8:	b292      	uxth	r2, r2
 80019aa:	3202      	adds	r2, #2
 80019ac:	eb02 03c3 	add.w	r3, r2, r3, lsl #3
 80019b0:	eb00 0343 	add.w	r3, r0, r3, lsl #1
 80019b4:	f8b3 e400 	ldrh.w	lr, [r3, #1024]	; 0x400
 80019b8:	f8d7 c040 	ldr.w	ip, [r7, #64]	; 0x40
 80019bc:	f3ce 0e09 	ubfx	lr, lr, #0, #10
 80019c0:	45f4      	cmp	ip, lr
 80019c2:	d817      	bhi.n	80019f4 <HAL_PCD_IRQHandler+0x5b8>
 80019c4:	2300      	movs	r3, #0
 80019c6:	643b      	str	r3, [r7, #64]	; 0x40
 80019c8:	4620      	mov	r0, r4
 80019ca:	f895 1028 	ldrb.w	r1, [r5, #40]	; 0x28
 80019ce:	f002 fdca 	bl	8004566 <HAL_PCD_DataInStageCallback>
 80019d2:	e540      	b.n	8001456 <HAL_PCD_IRQHandler+0x1a>
 80019d4:	3206      	adds	r2, #6
 80019d6:	4413      	add	r3, r2
 80019d8:	f835 5013 	ldrh.w	r5, [r5, r3, lsl #1]
 80019dc:	f3c5 0509 	ubfx	r5, r5, #0, #10
 80019e0:	2d00      	cmp	r5, #0
 80019e2:	d0a5      	beq.n	8001930 <HAL_PCD_IRQHandler+0x4f4>
 80019e4:	e77f      	b.n	80018e6 <HAL_PCD_IRQHandler+0x4aa>
 80019e6:	f501 71b4 	add.w	r1, r1, #360	; 0x168
 80019ea:	6820      	ldr	r0, [r4, #0]
 80019ec:	4421      	add	r1, r4
 80019ee:	f001 fba7 	bl	8003140 <USB_EPStartXfer>
 80019f2:	e7b9      	b.n	8001968 <HAL_PCD_IRQHandler+0x52c>
 80019f4:	ebac 030e 	sub.w	r3, ip, lr
 80019f8:	643b      	str	r3, [r7, #64]	; 0x40
 80019fa:	2b00      	cmp	r3, #0
 80019fc:	d0e4      	beq.n	80019c8 <HAL_PCD_IRQHandler+0x58c>
 80019fe:	fb06 1101 	mla	r1, r6, r1, r1
 8001a02:	6bfa      	ldr	r2, [r7, #60]	; 0x3c
 8001a04:	6c7b      	ldr	r3, [r7, #68]	; 0x44
 8001a06:	4472      	add	r2, lr
 8001a08:	4473      	add	r3, lr
 8001a0a:	63fa      	str	r2, [r7, #60]	; 0x3c
 8001a0c:	647b      	str	r3, [r7, #68]	; 0x44
 8001a0e:	4421      	add	r1, r4
 8001a10:	f001 fb96 	bl	8003140 <USB_EPStartXfer>
 8001a14:	e51f      	b.n	8001456 <HAL_PCD_IRQHandler+0x1a>
 8001a16:	2228      	movs	r2, #40	; 0x28
 8001a18:	fb02 4206 	mla	r2, r2, r6, r4
 8001a1c:	f8b0 1050 	ldrh.w	r1, [r0, #80]	; 0x50
 8001a20:	ea4f 0ac3 	mov.w	sl, r3, lsl #3
 8001a24:	b289      	uxth	r1, r1
 8001a26:	f017 0e40 	ands.w	lr, r7, #64	; 0x40
 8001a2a:	6c12      	ldr	r2, [r2, #64]	; 0x40
 8001a2c:	f500 6c80 	add.w	ip, r0, #1024	; 0x400
 8001a30:	4451      	add	r1, sl
 8001a32:	f407 4780 	and.w	r7, r7, #16384	; 0x4000
 8001a36:	f000 80e9 	beq.w	8001c0c <HAL_PCD_IRQHandler+0x7d0>
 8001a3a:	3102      	adds	r1, #2
 8001a3c:	f83c c011 	ldrh.w	ip, [ip, r1, lsl #1]
 8001a40:	2128      	movs	r1, #40	; 0x28
 8001a42:	f3cc 0c09 	ubfx	ip, ip, #0, #10
 8001a46:	4594      	cmp	ip, r2
 8001a48:	bf28      	it	cs
 8001a4a:	2200      	movcs	r2, #0
 8001a4c:	fb01 4106 	mla	r1, r1, r6, r4
 8001a50:	bf38      	it	cc
 8001a52:	eba2 020c 	subcc.w	r2, r2, ip
 8001a56:	640a      	str	r2, [r1, #64]	; 0x40
 8001a58:	b2bf      	uxth	r7, r7
 8001a5a:	2a00      	cmp	r2, #0
 8001a5c:	d15c      	bne.n	8001b18 <HAL_PCD_IRQHandler+0x6dc>
 8001a5e:	f895 1029 	ldrb.w	r1, [r5, #41]	; 0x29
 8001a62:	2900      	cmp	r1, #0
 8001a64:	d142      	bne.n	8001aec <HAL_PCD_IRQHandler+0x6b0>
 8001a66:	f8b0 1050 	ldrh.w	r1, [r0, #80]	; 0x50
 8001a6a:	011b      	lsls	r3, r3, #4
 8001a6c:	b28a      	uxth	r2, r1
 8001a6e:	f200 4104 	addw	r1, r0, #1028	; 0x404
 8001a72:	4411      	add	r1, r2
 8001a74:	5aca      	ldrh	r2, [r1, r3]
 8001a76:	f422 42f8 	bic.w	r2, r2, #31744	; 0x7c00
 8001a7a:	0412      	lsls	r2, r2, #16
 8001a7c:	0c12      	lsrs	r2, r2, #16
 8001a7e:	52ca      	strh	r2, [r1, r3]
 8001a80:	5aca      	ldrh	r2, [r1, r3]
 8001a82:	b292      	uxth	r2, r2
 8001a84:	f442 4200 	orr.w	r2, r2, #32768	; 0x8000
 8001a88:	52ca      	strh	r2, [r1, r3]
 8001a8a:	f895 2029 	ldrb.w	r2, [r5, #41]	; 0x29
 8001a8e:	f895 3028 	ldrb.w	r3, [r5, #40]	; 0x28
 8001a92:	bbaa      	cbnz	r2, 8001b00 <HAL_PCD_IRQHandler+0x6c4>
 8001a94:	f8b0 2050 	ldrh.w	r2, [r0, #80]	; 0x50
 8001a98:	f200 400c 	addw	r0, r0, #1036	; 0x40c
 8001a9c:	b292      	uxth	r2, r2
 8001a9e:	4410      	add	r0, r2
 8001aa0:	011a      	lsls	r2, r3, #4
 8001aa2:	5a83      	ldrh	r3, [r0, r2]
 8001aa4:	f423 43f8 	bic.w	r3, r3, #31744	; 0x7c00
 8001aa8:	041b      	lsls	r3, r3, #16
 8001aaa:	0c1b      	lsrs	r3, r3, #16
 8001aac:	5283      	strh	r3, [r0, r2]
 8001aae:	5a83      	ldrh	r3, [r0, r2]
 8001ab0:	b29b      	uxth	r3, r3
 8001ab2:	f443 4300 	orr.w	r3, r3, #32768	; 0x8000
 8001ab6:	5283      	strh	r3, [r0, r2]
 8001ab8:	4620      	mov	r0, r4
 8001aba:	f895 1028 	ldrb.w	r1, [r5, #40]	; 0x28
 8001abe:	f002 fd52 	bl	8004566 <HAL_PCD_DataInStageCallback>
 8001ac2:	2f00      	cmp	r7, #0
 8001ac4:	f000 80ea 	beq.w	8001c9c <HAL_PCD_IRQHandler+0x860>
 8001ac8:	f895 1028 	ldrb.w	r1, [r5, #40]	; 0x28
 8001acc:	6822      	ldr	r2, [r4, #0]
 8001ace:	f832 3021 	ldrh.w	r3, [r2, r1, lsl #2]
 8001ad2:	f423 43e0 	bic.w	r3, r3, #28672	; 0x7000
 8001ad6:	f023 0370 	bic.w	r3, r3, #112	; 0x70
 8001ada:	041b      	lsls	r3, r3, #16
 8001adc:	0c1b      	lsrs	r3, r3, #16
 8001ade:	f443 4340 	orr.w	r3, r3, #49152	; 0xc000
 8001ae2:	f043 0380 	orr.w	r3, r3, #128	; 0x80
 8001ae6:	f822 3021 	strh.w	r3, [r2, r1, lsl #2]
 8001aea:	e0d7      	b.n	8001c9c <HAL_PCD_IRQHandler+0x860>
 8001aec:	2901      	cmp	r1, #1
 8001aee:	d1cc      	bne.n	8001a8a <HAL_PCD_IRQHandler+0x64e>
 8001af0:	f8b0 1050 	ldrh.w	r1, [r0, #80]	; 0x50
 8001af4:	011b      	lsls	r3, r3, #4
 8001af6:	b28e      	uxth	r6, r1
 8001af8:	f200 4104 	addw	r1, r0, #1028	; 0x404
 8001afc:	4431      	add	r1, r6
 8001afe:	e7c3      	b.n	8001a88 <HAL_PCD_IRQHandler+0x64c>
 8001b00:	2a01      	cmp	r2, #1
 8001b02:	d1d9      	bne.n	8001ab8 <HAL_PCD_IRQHandler+0x67c>
 8001b04:	f8b0 2050 	ldrh.w	r2, [r0, #80]	; 0x50
 8001b08:	f200 400c 	addw	r0, r0, #1036	; 0x40c
 8001b0c:	b292      	uxth	r2, r2
 8001b0e:	4410      	add	r0, r2
 8001b10:	2200      	movs	r2, #0
 8001b12:	011b      	lsls	r3, r3, #4
 8001b14:	52c2      	strh	r2, [r0, r3]
 8001b16:	e7cf      	b.n	8001ab8 <HAL_PCD_IRQHandler+0x67c>
 8001b18:	b16f      	cbz	r7, 8001b36 <HAL_PCD_IRQHandler+0x6fa>
 8001b1a:	f830 2023 	ldrh.w	r2, [r0, r3, lsl #2]
 8001b1e:	f422 42e0 	bic.w	r2, r2, #28672	; 0x7000
 8001b22:	f022 0270 	bic.w	r2, r2, #112	; 0x70
 8001b26:	0412      	lsls	r2, r2, #16
 8001b28:	0c12      	lsrs	r2, r2, #16
 8001b2a:	f442 4240 	orr.w	r2, r2, #49152	; 0xc000
 8001b2e:	f042 0280 	orr.w	r2, r2, #128	; 0x80
 8001b32:	f820 2023 	strh.w	r2, [r0, r3, lsl #2]
 8001b36:	2328      	movs	r3, #40	; 0x28
 8001b38:	fb03 4306 	mla	r3, r3, r6, r4
 8001b3c:	f893 204c 	ldrb.w	r2, [r3, #76]	; 0x4c
 8001b40:	2a01      	cmp	r2, #1
 8001b42:	f040 80ab 	bne.w	8001c9c <HAL_PCD_IRQHandler+0x860>
 8001b46:	6c5a      	ldr	r2, [r3, #68]	; 0x44
 8001b48:	6bd9      	ldr	r1, [r3, #60]	; 0x3c
 8001b4a:	4462      	add	r2, ip
 8001b4c:	6c9f      	ldr	r7, [r3, #72]	; 0x48
 8001b4e:	645a      	str	r2, [r3, #68]	; 0x44
 8001b50:	6b9a      	ldr	r2, [r3, #56]	; 0x38
 8001b52:	4461      	add	r1, ip
 8001b54:	4297      	cmp	r7, r2
 8001b56:	63d9      	str	r1, [r3, #60]	; 0x3c
 8001b58:	d327      	bcc.n	8001baa <HAL_PCD_IRQHandler+0x76e>
 8001b5a:	1abf      	subs	r7, r7, r2
 8001b5c:	649f      	str	r7, [r3, #72]	; 0x48
 8001b5e:	f895 7029 	ldrb.w	r7, [r5, #41]	; 0x29
 8001b62:	b293      	uxth	r3, r2
 8001b64:	2f00      	cmp	r7, #0
 8001b66:	d143      	bne.n	8001bf0 <HAL_PCD_IRQHandler+0x7b4>
 8001b68:	f8b0 7050 	ldrh.w	r7, [r0, #80]	; 0x50
 8001b6c:	f895 c028 	ldrb.w	ip, [r5, #40]	; 0x28
 8001b70:	b2bf      	uxth	r7, r7
 8001b72:	f200 4e04 	addw	lr, r0, #1028	; 0x404
 8001b76:	ea4f 1c0c 	mov.w	ip, ip, lsl #4
 8001b7a:	4477      	add	r7, lr
 8001b7c:	bb02      	cbnz	r2, 8001bc0 <HAL_PCD_IRQHandler+0x784>
 8001b7e:	f83c 2007 	ldrh.w	r2, [ip, r7]
 8001b82:	f422 42f8 	bic.w	r2, r2, #31744	; 0x7c00
 8001b86:	0412      	lsls	r2, r2, #16
 8001b88:	0c12      	lsrs	r2, r2, #16
 8001b8a:	f82c 2007 	strh.w	r2, [ip, r7]
 8001b8e:	f83c 2007 	ldrh.w	r2, [ip, r7]
 8001b92:	b292      	uxth	r2, r2
 8001b94:	f442 4200 	orr.w	r2, r2, #32768	; 0x8000
 8001b98:	f82c 2007 	strh.w	r2, [ip, r7]
 8001b9c:	2228      	movs	r2, #40	; 0x28
 8001b9e:	fb02 4606 	mla	r6, r2, r6, r4
 8001ba2:	8e32      	ldrh	r2, [r6, #48]	; 0x30
 8001ba4:	f001 fabb 	bl	800311e <USB_WritePMA>
 8001ba8:	e078      	b.n	8001c9c <HAL_PCD_IRQHandler+0x860>
 8001baa:	b91f      	cbnz	r7, 8001bb4 <HAL_PCD_IRQHandler+0x778>
 8001bac:	4662      	mov	r2, ip
 8001bae:	f883 704c 	strb.w	r7, [r3, #76]	; 0x4c
 8001bb2:	e7d4      	b.n	8001b5e <HAL_PCD_IRQHandler+0x722>
 8001bb4:	2200      	movs	r2, #0
 8001bb6:	f883 204c 	strb.w	r2, [r3, #76]	; 0x4c
 8001bba:	649a      	str	r2, [r3, #72]	; 0x48
 8001bbc:	463a      	mov	r2, r7
 8001bbe:	e7ce      	b.n	8001b5e <HAL_PCD_IRQHandler+0x722>
 8001bc0:	2a3e      	cmp	r2, #62	; 0x3e
 8001bc2:	d80c      	bhi.n	8001bde <HAL_PCD_IRQHandler+0x7a2>
 8001bc4:	ea4f 0e52 	mov.w	lr, r2, lsr #1
 8001bc8:	07d2      	lsls	r2, r2, #31
 8001bca:	bf48      	it	mi
 8001bcc:	f10e 0e01 	addmi.w	lr, lr, #1
 8001bd0:	ea4f 2e8e 	mov.w	lr, lr, lsl #10
 8001bd4:	fa1f fe8e 	uxth.w	lr, lr
 8001bd8:	f82c e007 	strh.w	lr, [ip, r7]
 8001bdc:	e7de      	b.n	8001b9c <HAL_PCD_IRQHandler+0x760>
 8001bde:	ea4f 1e52 	mov.w	lr, r2, lsr #5
 8001be2:	06d2      	lsls	r2, r2, #27
 8001be4:	bf08      	it	eq
 8001be6:	f10e 3eff 	addeq.w	lr, lr, #4294967295
 8001bea:	ea48 2e8e 	orr.w	lr, r8, lr, lsl #10
 8001bee:	e7f1      	b.n	8001bd4 <HAL_PCD_IRQHandler+0x798>
 8001bf0:	2f01      	cmp	r7, #1
 8001bf2:	d1d3      	bne.n	8001b9c <HAL_PCD_IRQHandler+0x760>
 8001bf4:	f8b0 2050 	ldrh.w	r2, [r0, #80]	; 0x50
 8001bf8:	f895 7028 	ldrb.w	r7, [r5, #40]	; 0x28
 8001bfc:	fa1f fc82 	uxth.w	ip, r2
 8001c00:	f200 4204 	addw	r2, r0, #1028	; 0x404
 8001c04:	013f      	lsls	r7, r7, #4
 8001c06:	4462      	add	r2, ip
 8001c08:	52bb      	strh	r3, [r7, r2]
 8001c0a:	e7c7      	b.n	8001b9c <HAL_PCD_IRQHandler+0x760>
 8001c0c:	3106      	adds	r1, #6
 8001c0e:	f83c c011 	ldrh.w	ip, [ip, r1, lsl #1]
 8001c12:	2128      	movs	r1, #40	; 0x28
 8001c14:	f3cc 0c09 	ubfx	ip, ip, #0, #10
 8001c18:	4594      	cmp	ip, r2
 8001c1a:	bf88      	it	hi
 8001c1c:	4672      	movhi	r2, lr
 8001c1e:	fb01 4106 	mla	r1, r1, r6, r4
 8001c22:	bf98      	it	ls
 8001c24:	eba2 020c 	subls.w	r2, r2, ip
 8001c28:	640a      	str	r2, [r1, #64]	; 0x40
 8001c2a:	b2bf      	uxth	r7, r7
 8001c2c:	2a00      	cmp	r2, #0
 8001c2e:	d15f      	bne.n	8001cf0 <HAL_PCD_IRQHandler+0x8b4>
 8001c30:	f895 1029 	ldrb.w	r1, [r5, #41]	; 0x29
 8001c34:	2900      	cmp	r1, #0
 8001c36:	d145      	bne.n	8001cc4 <HAL_PCD_IRQHandler+0x888>
 8001c38:	f8b0 1050 	ldrh.w	r1, [r0, #80]	; 0x50
 8001c3c:	011b      	lsls	r3, r3, #4
 8001c3e:	b28a      	uxth	r2, r1
 8001c40:	f200 4104 	addw	r1, r0, #1028	; 0x404
 8001c44:	4411      	add	r1, r2
 8001c46:	5aca      	ldrh	r2, [r1, r3]
 8001c48:	f422 42f8 	bic.w	r2, r2, #31744	; 0x7c00
 8001c4c:	0412      	lsls	r2, r2, #16
 8001c4e:	0c12      	lsrs	r2, r2, #16
 8001c50:	52ca      	strh	r2, [r1, r3]
 8001c52:	5aca      	ldrh	r2, [r1, r3]
 8001c54:	b292      	uxth	r2, r2
 8001c56:	f442 4200 	orr.w	r2, r2, #32768	; 0x8000
 8001c5a:	52ca      	strh	r2, [r1, r3]
 8001c5c:	f895 2029 	ldrb.w	r2, [r5, #41]	; 0x29
 8001c60:	f895 3028 	ldrb.w	r3, [r5, #40]	; 0x28
 8001c64:	2a00      	cmp	r2, #0
 8001c66:	d137      	bne.n	8001cd8 <HAL_PCD_IRQHandler+0x89c>
 8001c68:	f8b0 2050 	ldrh.w	r2, [r0, #80]	; 0x50
 8001c6c:	f200 400c 	addw	r0, r0, #1036	; 0x40c
 8001c70:	b292      	uxth	r2, r2
 8001c72:	4410      	add	r0, r2
 8001c74:	011a      	lsls	r2, r3, #4
 8001c76:	5a83      	ldrh	r3, [r0, r2]
 8001c78:	f423 43f8 	bic.w	r3, r3, #31744	; 0x7c00
 8001c7c:	041b      	lsls	r3, r3, #16
 8001c7e:	0c1b      	lsrs	r3, r3, #16
 8001c80:	5283      	strh	r3, [r0, r2]
 8001c82:	5a83      	ldrh	r3, [r0, r2]
 8001c84:	b29b      	uxth	r3, r3
 8001c86:	f443 4300 	orr.w	r3, r3, #32768	; 0x8000
 8001c8a:	5283      	strh	r3, [r0, r2]
 8001c8c:	4620      	mov	r0, r4
 8001c8e:	f895 1028 	ldrb.w	r1, [r5, #40]	; 0x28
 8001c92:	f002 fc68 	bl	8004566 <HAL_PCD_DataInStageCallback>
 8001c96:	2f00      	cmp	r7, #0
 8001c98:	f43f af16 	beq.w	8001ac8 <HAL_PCD_IRQHandler+0x68c>
 8001c9c:	f895 1028 	ldrb.w	r1, [r5, #40]	; 0x28
 8001ca0:	6822      	ldr	r2, [r4, #0]
 8001ca2:	f832 3021 	ldrh.w	r3, [r2, r1, lsl #2]
 8001ca6:	b29b      	uxth	r3, r3
 8001ca8:	f423 43e0 	bic.w	r3, r3, #28672	; 0x7000
 8001cac:	f023 0340 	bic.w	r3, r3, #64	; 0x40
 8001cb0:	f083 0330 	eor.w	r3, r3, #48	; 0x30
 8001cb4:	f443 4300 	orr.w	r3, r3, #32768	; 0x8000
 8001cb8:	f043 0380 	orr.w	r3, r3, #128	; 0x80
 8001cbc:	f822 3021 	strh.w	r3, [r2, r1, lsl #2]
 8001cc0:	f7ff bbc9 	b.w	8001456 <HAL_PCD_IRQHandler+0x1a>
 8001cc4:	2901      	cmp	r1, #1
 8001cc6:	d1c9      	bne.n	8001c5c <HAL_PCD_IRQHandler+0x820>
 8001cc8:	f8b0 1050 	ldrh.w	r1, [r0, #80]	; 0x50
 8001ccc:	011b      	lsls	r3, r3, #4
 8001cce:	b28e      	uxth	r6, r1
 8001cd0:	f200 4104 	addw	r1, r0, #1028	; 0x404
 8001cd4:	4431      	add	r1, r6
 8001cd6:	e7c0      	b.n	8001c5a <HAL_PCD_IRQHandler+0x81e>
 8001cd8:	2a01      	cmp	r2, #1
 8001cda:	d1d7      	bne.n	8001c8c <HAL_PCD_IRQHandler+0x850>
 8001cdc:	f8b0 2050 	ldrh.w	r2, [r0, #80]	; 0x50
 8001ce0:	f200 400c 	addw	r0, r0, #1036	; 0x40c
 8001ce4:	b292      	uxth	r2, r2
 8001ce6:	4410      	add	r0, r2
 8001ce8:	2200      	movs	r2, #0
 8001cea:	011b      	lsls	r3, r3, #4
 8001cec:	52c2      	strh	r2, [r0, r3]
 8001cee:	e7cd      	b.n	8001c8c <HAL_PCD_IRQHandler+0x850>
 8001cf0:	b96f      	cbnz	r7, 8001d0e <HAL_PCD_IRQHandler+0x8d2>
 8001cf2:	f830 2023 	ldrh.w	r2, [r0, r3, lsl #2]
 8001cf6:	f422 42e0 	bic.w	r2, r2, #28672	; 0x7000
 8001cfa:	f022 0270 	bic.w	r2, r2, #112	; 0x70
 8001cfe:	0412      	lsls	r2, r2, #16
 8001d00:	0c12      	lsrs	r2, r2, #16
 8001d02:	f442 4240 	orr.w	r2, r2, #49152	; 0xc000
 8001d06:	f042 0280 	orr.w	r2, r2, #128	; 0x80
 8001d0a:	f820 2023 	strh.w	r2, [r0, r3, lsl #2]
 8001d0e:	2328      	movs	r3, #40	; 0x28
 8001d10:	fb03 4306 	mla	r3, r3, r6, r4
 8001d14:	f893 204c 	ldrb.w	r2, [r3, #76]	; 0x4c
 8001d18:	2a01      	cmp	r2, #1
 8001d1a:	d1bf      	bne.n	8001c9c <HAL_PCD_IRQHandler+0x860>
 8001d1c:	6c5a      	ldr	r2, [r3, #68]	; 0x44
 8001d1e:	6bd9      	ldr	r1, [r3, #60]	; 0x3c
 8001d20:	4462      	add	r2, ip
 8001d22:	6c9f      	ldr	r7, [r3, #72]	; 0x48
 8001d24:	645a      	str	r2, [r3, #68]	; 0x44
 8001d26:	6b9a      	ldr	r2, [r3, #56]	; 0x38
 8001d28:	4461      	add	r1, ip
 8001d2a:	4297      	cmp	r7, r2
 8001d2c:	63d9      	str	r1, [r3, #60]	; 0x3c
 8001d2e:	d325      	bcc.n	8001d7c <HAL_PCD_IRQHandler+0x940>
 8001d30:	1abf      	subs	r7, r7, r2
 8001d32:	649f      	str	r7, [r3, #72]	; 0x48
 8001d34:	f895 7029 	ldrb.w	r7, [r5, #41]	; 0x29
 8001d38:	b293      	uxth	r3, r2
 8001d3a:	2f00      	cmp	r7, #0
 8001d3c:	d141      	bne.n	8001dc2 <HAL_PCD_IRQHandler+0x986>
 8001d3e:	f8b0 c050 	ldrh.w	ip, [r0, #80]	; 0x50
 8001d42:	fa1f f78c 	uxth.w	r7, ip
 8001d46:	f200 4c0c 	addw	ip, r0, #1036	; 0x40c
 8001d4a:	44bc      	add	ip, r7
 8001d4c:	f895 7028 	ldrb.w	r7, [r5, #40]	; 0x28
 8001d50:	013f      	lsls	r7, r7, #4
 8001d52:	b9f2      	cbnz	r2, 8001d92 <HAL_PCD_IRQHandler+0x956>
 8001d54:	f83c 2007 	ldrh.w	r2, [ip, r7]
 8001d58:	f422 42f8 	bic.w	r2, r2, #31744	; 0x7c00
 8001d5c:	0412      	lsls	r2, r2, #16
 8001d5e:	0c12      	lsrs	r2, r2, #16
 8001d60:	f82c 2007 	strh.w	r2, [ip, r7]
 8001d64:	f83c 2007 	ldrh.w	r2, [ip, r7]
 8001d68:	b292      	uxth	r2, r2
 8001d6a:	f442 4200 	orr.w	r2, r2, #32768	; 0x8000
 8001d6e:	f82c 2007 	strh.w	r2, [ip, r7]
 8001d72:	2228      	movs	r2, #40	; 0x28
 8001d74:	fb02 4606 	mla	r6, r2, r6, r4
 8001d78:	8e72      	ldrh	r2, [r6, #50]	; 0x32
 8001d7a:	e713      	b.n	8001ba4 <HAL_PCD_IRQHandler+0x768>
 8001d7c:	b91f      	cbnz	r7, 8001d86 <HAL_PCD_IRQHandler+0x94a>
 8001d7e:	4662      	mov	r2, ip
 8001d80:	f883 704c 	strb.w	r7, [r3, #76]	; 0x4c
 8001d84:	e7d6      	b.n	8001d34 <HAL_PCD_IRQHandler+0x8f8>
 8001d86:	2200      	movs	r2, #0
 8001d88:	649a      	str	r2, [r3, #72]	; 0x48
 8001d8a:	f883 204c 	strb.w	r2, [r3, #76]	; 0x4c
 8001d8e:	463a      	mov	r2, r7
 8001d90:	e7d0      	b.n	8001d34 <HAL_PCD_IRQHandler+0x8f8>
 8001d92:	2a3e      	cmp	r2, #62	; 0x3e
 8001d94:	d80c      	bhi.n	8001db0 <HAL_PCD_IRQHandler+0x974>
 8001d96:	ea4f 0e52 	mov.w	lr, r2, lsr #1
 8001d9a:	07d2      	lsls	r2, r2, #31
 8001d9c:	bf48      	it	mi
 8001d9e:	f10e 0e01 	addmi.w	lr, lr, #1
 8001da2:	ea4f 2e8e 	mov.w	lr, lr, lsl #10
 8001da6:	fa1f fe8e 	uxth.w	lr, lr
 8001daa:	f82c e007 	strh.w	lr, [ip, r7]
 8001dae:	e7e0      	b.n	8001d72 <HAL_PCD_IRQHandler+0x936>
 8001db0:	ea4f 1e52 	mov.w	lr, r2, lsr #5
 8001db4:	06d2      	lsls	r2, r2, #27
 8001db6:	bf08      	it	eq
 8001db8:	f10e 3eff 	addeq.w	lr, lr, #4294967295
 8001dbc:	ea48 2e8e 	orr.w	lr, r8, lr, lsl #10
 8001dc0:	e7f1      	b.n	8001da6 <HAL_PCD_IRQHandler+0x96a>
 8001dc2:	2f01      	cmp	r7, #1
 8001dc4:	d1d5      	bne.n	8001d72 <HAL_PCD_IRQHandler+0x936>
 8001dc6:	f8b0 7050 	ldrh.w	r7, [r0, #80]	; 0x50
 8001dca:	b2ba      	uxth	r2, r7
 8001dcc:	f200 470c 	addw	r7, r0, #1036	; 0x40c
 8001dd0:	4417      	add	r7, r2
 8001dd2:	f895 2028 	ldrb.w	r2, [r5, #40]	; 0x28
 8001dd6:	0112      	lsls	r2, r2, #4
 8001dd8:	52bb      	strh	r3, [r7, r2]
 8001dda:	e7ca      	b.n	8001d72 <HAL_PCD_IRQHandler+0x936>
 8001ddc:	ffff8f0f 	.word	0xffff8f0f
 8001de0:	ffff8000 	.word	0xffff8000

08001de4 <HAL_PCD_EP_Open>:
 8001de4:	f011 0f80 	tst.w	r1, #128	; 0x80
 8001de8:	b570      	push	{r4, r5, r6, lr}
 8001dea:	4605      	mov	r5, r0
 8001dec:	f001 0007 	and.w	r0, r1, #7
 8001df0:	f04f 0128 	mov.w	r1, #40	; 0x28
 8001df4:	d01c      	beq.n	8001e30 <HAL_PCD_EP_Open+0x4c>
 8001df6:	2401      	movs	r4, #1
 8001df8:	fb00 1101 	mla	r1, r0, r1, r1
 8001dfc:	4429      	add	r1, r5
 8001dfe:	704c      	strb	r4, [r1, #1]
 8001e00:	610a      	str	r2, [r1, #16]
 8001e02:	784a      	ldrb	r2, [r1, #1]
 8001e04:	7008      	strb	r0, [r1, #0]
 8001e06:	70cb      	strb	r3, [r1, #3]
 8001e08:	b102      	cbz	r2, 8001e0c <HAL_PCD_EP_Open+0x28>
 8001e0a:	81c8      	strh	r0, [r1, #14]
 8001e0c:	2b02      	cmp	r3, #2
 8001e0e:	bf04      	itt	eq
 8001e10:	2300      	moveq	r3, #0
 8001e12:	710b      	strbeq	r3, [r1, #4]
 8001e14:	f895 32a8 	ldrb.w	r3, [r5, #680]	; 0x2a8
 8001e18:	2b01      	cmp	r3, #1
 8001e1a:	d013      	beq.n	8001e44 <HAL_PCD_EP_Open+0x60>
 8001e1c:	2301      	movs	r3, #1
 8001e1e:	6828      	ldr	r0, [r5, #0]
 8001e20:	f885 32a8 	strb.w	r3, [r5, #680]	; 0x2a8
 8001e24:	f000 febe 	bl	8002ba4 <USB_ActivateEndpoint>
 8001e28:	2000      	movs	r0, #0
 8001e2a:	f885 02a8 	strb.w	r0, [r5, #680]	; 0x2a8
 8001e2e:	bd70      	pop	{r4, r5, r6, pc}
 8001e30:	2600      	movs	r6, #0
 8001e32:	fb01 f400 	mul.w	r4, r1, r0
 8001e36:	f504 71b4 	add.w	r1, r4, #360	; 0x168
 8001e3a:	442c      	add	r4, r5
 8001e3c:	4429      	add	r1, r5
 8001e3e:	f884 6169 	strb.w	r6, [r4, #361]	; 0x169
 8001e42:	e7dd      	b.n	8001e00 <HAL_PCD_EP_Open+0x1c>
 8001e44:	2002      	movs	r0, #2
 8001e46:	e7f2      	b.n	8001e2e <HAL_PCD_EP_Open+0x4a>

08001e48 <HAL_PCD_EP_Close>:
 8001e48:	f011 0f80 	tst.w	r1, #128	; 0x80
 8001e4c:	b510      	push	{r4, lr}
 8001e4e:	f001 0207 	and.w	r2, r1, #7
 8001e52:	4604      	mov	r4, r0
 8001e54:	f04f 0128 	mov.w	r1, #40	; 0x28
 8001e58:	d013      	beq.n	8001e82 <HAL_PCD_EP_Close+0x3a>
 8001e5a:	2301      	movs	r3, #1
 8001e5c:	fb02 1101 	mla	r1, r2, r1, r1
 8001e60:	4401      	add	r1, r0
 8001e62:	704b      	strb	r3, [r1, #1]
 8001e64:	700a      	strb	r2, [r1, #0]
 8001e66:	f894 32a8 	ldrb.w	r3, [r4, #680]	; 0x2a8
 8001e6a:	2b01      	cmp	r3, #1
 8001e6c:	d013      	beq.n	8001e96 <HAL_PCD_EP_Close+0x4e>
 8001e6e:	2301      	movs	r3, #1
 8001e70:	6820      	ldr	r0, [r4, #0]
 8001e72:	f884 32a8 	strb.w	r3, [r4, #680]	; 0x2a8
 8001e76:	f000 ffed 	bl	8002e54 <USB_DeactivateEndpoint>
 8001e7a:	2000      	movs	r0, #0
 8001e7c:	f884 02a8 	strb.w	r0, [r4, #680]	; 0x2a8
 8001e80:	bd10      	pop	{r4, pc}
 8001e82:	fb01 f302 	mul.w	r3, r1, r2
 8001e86:	f503 71b4 	add.w	r1, r3, #360	; 0x168
 8001e8a:	4401      	add	r1, r0
 8001e8c:	4403      	add	r3, r0
 8001e8e:	2000      	movs	r0, #0
 8001e90:	f883 0169 	strb.w	r0, [r3, #361]	; 0x169
 8001e94:	e7e6      	b.n	8001e64 <HAL_PCD_EP_Close+0x1c>
 8001e96:	2002      	movs	r0, #2
 8001e98:	e7f2      	b.n	8001e80 <HAL_PCD_EP_Close+0x38>

08001e9a <HAL_PCD_EP_Receive>:
 8001e9a:	b570      	push	{r4, r5, r6, lr}
 8001e9c:	2428      	movs	r4, #40	; 0x28
 8001e9e:	2600      	movs	r6, #0
 8001ea0:	f001 0107 	and.w	r1, r1, #7
 8001ea4:	434c      	muls	r4, r1
 8001ea6:	1905      	adds	r5, r0, r4
 8001ea8:	f885 1168 	strb.w	r1, [r5, #360]	; 0x168
 8001eac:	f504 71b4 	add.w	r1, r4, #360	; 0x168
 8001eb0:	4401      	add	r1, r0
 8001eb2:	e9c5 235f 	strd	r2, r3, [r5, #380]	; 0x17c
 8001eb6:	f8c5 6184 	str.w	r6, [r5, #388]	; 0x184
 8001eba:	f885 6169 	strb.w	r6, [r5, #361]	; 0x169
 8001ebe:	6800      	ldr	r0, [r0, #0]
 8001ec0:	f001 f93e 	bl	8003140 <USB_EPStartXfer>
 8001ec4:	4630      	mov	r0, r6
 8001ec6:	bd70      	pop	{r4, r5, r6, pc}

08001ec8 <HAL_PCD_EP_GetRxCount>:
 8001ec8:	2328      	movs	r3, #40	; 0x28
 8001eca:	f001 0107 	and.w	r1, r1, #7
 8001ece:	fb03 0101 	mla	r1, r3, r1, r0
 8001ed2:	f8d1 0184 	ldr.w	r0, [r1, #388]	; 0x184
 8001ed6:	4770      	bx	lr

08001ed8 <HAL_PCD_EP_Transmit>:
 8001ed8:	b570      	push	{r4, r5, r6, lr}
 8001eda:	f001 0507 	and.w	r5, r1, #7
 8001ede:	2128      	movs	r1, #40	; 0x28
 8001ee0:	fb01 0405 	mla	r4, r1, r5, r0
 8001ee4:	2600      	movs	r6, #0
 8001ee6:	e9c4 230f 	strd	r2, r3, [r4, #60]	; 0x3c
 8001eea:	2201      	movs	r2, #1
 8001eec:	fb05 1101 	mla	r1, r5, r1, r1
 8001ef0:	f884 204c 	strb.w	r2, [r4, #76]	; 0x4c
 8001ef4:	4401      	add	r1, r0
 8001ef6:	64a3      	str	r3, [r4, #72]	; 0x48
 8001ef8:	6466      	str	r6, [r4, #68]	; 0x44
 8001efa:	f884 2029 	strb.w	r2, [r4, #41]	; 0x29
 8001efe:	f884 5028 	strb.w	r5, [r4, #40]	; 0x28
 8001f02:	6800      	ldr	r0, [r0, #0]
 8001f04:	f001 f91c 	bl	8003140 <USB_EPStartXfer>
 8001f08:	4630      	mov	r0, r6
 8001f0a:	bd70      	pop	{r4, r5, r6, pc}

08001f0c <HAL_PCD_EP_SetStall>:
 8001f0c:	b538      	push	{r3, r4, r5, lr}
 8001f0e:	6843      	ldr	r3, [r0, #4]
 8001f10:	f001 0507 	and.w	r5, r1, #7
 8001f14:	429d      	cmp	r5, r3
 8001f16:	4604      	mov	r4, r0
 8001f18:	d828      	bhi.n	8001f6c <HAL_PCD_EP_SetStall+0x60>
 8001f1a:	f011 0f80 	tst.w	r1, #128	; 0x80
 8001f1e:	f04f 0328 	mov.w	r3, #40	; 0x28
 8001f22:	d01a      	beq.n	8001f5a <HAL_PCD_EP_SetStall+0x4e>
 8001f24:	fb05 3303 	mla	r3, r5, r3, r3
 8001f28:	18c1      	adds	r1, r0, r3
 8001f2a:	2301      	movs	r3, #1
 8001f2c:	704b      	strb	r3, [r1, #1]
 8001f2e:	2301      	movs	r3, #1
 8001f30:	700d      	strb	r5, [r1, #0]
 8001f32:	708b      	strb	r3, [r1, #2]
 8001f34:	f894 22a8 	ldrb.w	r2, [r4, #680]	; 0x2a8
 8001f38:	429a      	cmp	r2, r3
 8001f3a:	d019      	beq.n	8001f70 <HAL_PCD_EP_SetStall+0x64>
 8001f3c:	6820      	ldr	r0, [r4, #0]
 8001f3e:	f884 32a8 	strb.w	r3, [r4, #680]	; 0x2a8
 8001f42:	f001 f866 	bl	8003012 <USB_EPSetStall>
 8001f46:	b925      	cbnz	r5, 8001f52 <HAL_PCD_EP_SetStall+0x46>
 8001f48:	6820      	ldr	r0, [r4, #0]
 8001f4a:	f504 712c 	add.w	r1, r4, #688	; 0x2b0
 8001f4e:	f001 f8e4 	bl	800311a <USB_EP0_OutStart>
 8001f52:	2000      	movs	r0, #0
 8001f54:	f884 02a8 	strb.w	r0, [r4, #680]	; 0x2a8
 8001f58:	bd38      	pop	{r3, r4, r5, pc}
 8001f5a:	2200      	movs	r2, #0
 8001f5c:	434b      	muls	r3, r1
 8001f5e:	f503 71b4 	add.w	r1, r3, #360	; 0x168
 8001f62:	4403      	add	r3, r0
 8001f64:	4401      	add	r1, r0
 8001f66:	f883 2169 	strb.w	r2, [r3, #361]	; 0x169
 8001f6a:	e7e0      	b.n	8001f2e <HAL_PCD_EP_SetStall+0x22>
 8001f6c:	2001      	movs	r0, #1
 8001f6e:	e7f3      	b.n	8001f58 <HAL_PCD_EP_SetStall+0x4c>
 8001f70:	2002      	movs	r0, #2
 8001f72:	e7f1      	b.n	8001f58 <HAL_PCD_EP_SetStall+0x4c>

08001f74 <HAL_PCD_EP_ClrStall>:
 8001f74:	b538      	push	{r3, r4, r5, lr}
 8001f76:	6843      	ldr	r3, [r0, #4]
 8001f78:	f001 020f 	and.w	r2, r1, #15
 8001f7c:	429a      	cmp	r2, r3
 8001f7e:	4604      	mov	r4, r0
 8001f80:	d826      	bhi.n	8001fd0 <HAL_PCD_EP_ClrStall+0x5c>
 8001f82:	f011 0f80 	tst.w	r1, #128	; 0x80
 8001f86:	f001 0207 	and.w	r2, r1, #7
 8001f8a:	f04f 0128 	mov.w	r1, #40	; 0x28
 8001f8e:	d015      	beq.n	8001fbc <HAL_PCD_EP_ClrStall+0x48>
 8001f90:	2301      	movs	r3, #1
 8001f92:	fb02 1101 	mla	r1, r2, r1, r1
 8001f96:	4401      	add	r1, r0
 8001f98:	704b      	strb	r3, [r1, #1]
 8001f9a:	2500      	movs	r5, #0
 8001f9c:	700a      	strb	r2, [r1, #0]
 8001f9e:	708d      	strb	r5, [r1, #2]
 8001fa0:	f894 32a8 	ldrb.w	r3, [r4, #680]	; 0x2a8
 8001fa4:	2b01      	cmp	r3, #1
 8001fa6:	d015      	beq.n	8001fd4 <HAL_PCD_EP_ClrStall+0x60>
 8001fa8:	2301      	movs	r3, #1
 8001faa:	6820      	ldr	r0, [r4, #0]
 8001fac:	f884 32a8 	strb.w	r3, [r4, #680]	; 0x2a8
 8001fb0:	f001 f84f 	bl	8003052 <USB_EPClearStall>
 8001fb4:	4628      	mov	r0, r5
 8001fb6:	f884 52a8 	strb.w	r5, [r4, #680]	; 0x2a8
 8001fba:	bd38      	pop	{r3, r4, r5, pc}
 8001fbc:	fb01 f302 	mul.w	r3, r1, r2
 8001fc0:	f503 71b4 	add.w	r1, r3, #360	; 0x168
 8001fc4:	4401      	add	r1, r0
 8001fc6:	4403      	add	r3, r0
 8001fc8:	2000      	movs	r0, #0
 8001fca:	f883 0169 	strb.w	r0, [r3, #361]	; 0x169
 8001fce:	e7e4      	b.n	8001f9a <HAL_PCD_EP_ClrStall+0x26>
 8001fd0:	2001      	movs	r0, #1
 8001fd2:	e7f2      	b.n	8001fba <HAL_PCD_EP_ClrStall+0x46>
 8001fd4:	2002      	movs	r0, #2
 8001fd6:	e7f0      	b.n	8001fba <HAL_PCD_EP_ClrStall+0x46>

08001fd8 <HAL_PCDEx_PMAConfig>:
 8001fd8:	b510      	push	{r4, lr}
 8001fda:	2428      	movs	r4, #40	; 0x28
 8001fdc:	f011 0f80 	tst.w	r1, #128	; 0x80
 8001fe0:	bf1b      	ittet	ne
 8001fe2:	f001 0107 	andne.w	r1, r1, #7
 8001fe6:	fb01 4104 	mlane	r1, r1, r4, r4
 8001fea:	fb04 0001 	mlaeq	r0, r4, r1, r0
 8001fee:	1840      	addne	r0, r0, r1
 8001ff0:	bf08      	it	eq
 8001ff2:	f500 70b4 	addeq.w	r0, r0, #360	; 0x168
 8001ff6:	b299      	uxth	r1, r3
 8001ff8:	b91a      	cbnz	r2, 8002002 <HAL_PCDEx_PMAConfig+0x2a>
 8001ffa:	7302      	strb	r2, [r0, #12]
 8001ffc:	80c1      	strh	r1, [r0, #6]
 8001ffe:	2000      	movs	r0, #0
 8002000:	bd10      	pop	{r4, pc}
 8002002:	2201      	movs	r2, #1
 8002004:	6083      	str	r3, [r0, #8]
 8002006:	7302      	strb	r2, [r0, #12]
 8002008:	e7f9      	b.n	8001ffe <HAL_PCDEx_PMAConfig+0x26>
	...

0800200c <HAL_RCC_DeInit>:
 800200c:	b570      	push	{r4, r5, r6, lr}
 800200e:	f7fe fdad 	bl	8000b6c <HAL_GetTick>
 8002012:	4605      	mov	r5, r0
 8002014:	4c2f      	ldr	r4, [pc, #188]	; (80020d4 <HAL_RCC_DeInit+0xc8>)
 8002016:	6823      	ldr	r3, [r4, #0]
 8002018:	f043 0301 	orr.w	r3, r3, #1
 800201c:	6023      	str	r3, [r4, #0]
 800201e:	6823      	ldr	r3, [r4, #0]
 8002020:	079b      	lsls	r3, r3, #30
 8002022:	d53b      	bpl.n	800209c <HAL_RCC_DeInit+0x90>
 8002024:	6823      	ldr	r3, [r4, #0]
 8002026:	f241 3688 	movw	r6, #5000	; 0x1388
 800202a:	f023 03f8 	bic.w	r3, r3, #248	; 0xf8
 800202e:	f043 0380 	orr.w	r3, r3, #128	; 0x80
 8002032:	6023      	str	r3, [r4, #0]
 8002034:	f7fe fd9a 	bl	8000b6c <HAL_GetTick>
 8002038:	2300      	movs	r3, #0
 800203a:	4605      	mov	r5, r0
 800203c:	6063      	str	r3, [r4, #4]
 800203e:	6863      	ldr	r3, [r4, #4]
 8002040:	f013 0f0c 	tst.w	r3, #12
 8002044:	d132      	bne.n	80020ac <HAL_RCC_DeInit+0xa0>
 8002046:	4b24      	ldr	r3, [pc, #144]	; (80020d8 <HAL_RCC_DeInit+0xcc>)
 8002048:	4a24      	ldr	r2, [pc, #144]	; (80020dc <HAL_RCC_DeInit+0xd0>)
 800204a:	601a      	str	r2, [r3, #0]
 800204c:	4b24      	ldr	r3, [pc, #144]	; (80020e0 <HAL_RCC_DeInit+0xd4>)
 800204e:	6818      	ldr	r0, [r3, #0]
 8002050:	f7fe fd4a 	bl	8000ae8 <HAL_InitTick>
 8002054:	4605      	mov	r5, r0
 8002056:	2800      	cmp	r0, #0
 8002058:	d13a      	bne.n	80020d0 <HAL_RCC_DeInit+0xc4>
 800205a:	f7fe fd87 	bl	8000b6c <HAL_GetTick>
 800205e:	4606      	mov	r6, r0
 8002060:	6823      	ldr	r3, [r4, #0]
 8002062:	f023 7380 	bic.w	r3, r3, #16777216	; 0x1000000
 8002066:	6023      	str	r3, [r4, #0]
 8002068:	6823      	ldr	r3, [r4, #0]
 800206a:	f013 7300 	ands.w	r3, r3, #33554432	; 0x2000000
 800206e:	d123      	bne.n	80020b8 <HAL_RCC_DeInit+0xac>
 8002070:	6063      	str	r3, [r4, #4]
 8002072:	f7fe fd7b 	bl	8000b6c <HAL_GetTick>
 8002076:	4606      	mov	r6, r0
 8002078:	6823      	ldr	r3, [r4, #0]
 800207a:	f423 2310 	bic.w	r3, r3, #589824	; 0x90000
 800207e:	6023      	str	r3, [r4, #0]
 8002080:	6823      	ldr	r3, [r4, #0]
 8002082:	f413 3300 	ands.w	r3, r3, #131072	; 0x20000
 8002086:	d11d      	bne.n	80020c4 <HAL_RCC_DeInit+0xb8>
 8002088:	6822      	ldr	r2, [r4, #0]
 800208a:	f422 2280 	bic.w	r2, r2, #262144	; 0x40000
 800208e:	6022      	str	r2, [r4, #0]
 8002090:	6a62      	ldr	r2, [r4, #36]	; 0x24
 8002092:	f042 7280 	orr.w	r2, r2, #16777216	; 0x1000000
 8002096:	6262      	str	r2, [r4, #36]	; 0x24
 8002098:	60a3      	str	r3, [r4, #8]
 800209a:	e005      	b.n	80020a8 <HAL_RCC_DeInit+0x9c>
 800209c:	f7fe fd66 	bl	8000b6c <HAL_GetTick>
 80020a0:	1b40      	subs	r0, r0, r5
 80020a2:	2802      	cmp	r0, #2
 80020a4:	d9bb      	bls.n	800201e <HAL_RCC_DeInit+0x12>
 80020a6:	2503      	movs	r5, #3
 80020a8:	4628      	mov	r0, r5
 80020aa:	bd70      	pop	{r4, r5, r6, pc}
 80020ac:	f7fe fd5e 	bl	8000b6c <HAL_GetTick>
 80020b0:	1b40      	subs	r0, r0, r5
 80020b2:	42b0      	cmp	r0, r6
 80020b4:	d9c3      	bls.n	800203e <HAL_RCC_DeInit+0x32>
 80020b6:	e7f6      	b.n	80020a6 <HAL_RCC_DeInit+0x9a>
 80020b8:	f7fe fd58 	bl	8000b6c <HAL_GetTick>
 80020bc:	1b80      	subs	r0, r0, r6
 80020be:	2802      	cmp	r0, #2
 80020c0:	d9d2      	bls.n	8002068 <HAL_RCC_DeInit+0x5c>
 80020c2:	e7f0      	b.n	80020a6 <HAL_RCC_DeInit+0x9a>
 80020c4:	f7fe fd52 	bl	8000b6c <HAL_GetTick>
 80020c8:	1b80      	subs	r0, r0, r6
 80020ca:	2864      	cmp	r0, #100	; 0x64
 80020cc:	d9d8      	bls.n	8002080 <HAL_RCC_DeInit+0x74>
 80020ce:	e7ea      	b.n	80020a6 <HAL_RCC_DeInit+0x9a>
 80020d0:	2501      	movs	r5, #1
 80020d2:	e7e9      	b.n	80020a8 <HAL_RCC_DeInit+0x9c>
 80020d4:	40021000 	.word	0x40021000
 80020d8:	20000004 	.word	0x20000004
 80020dc:	007a1200 	.word	0x007a1200
 80020e0:	2000000c 	.word	0x2000000c

080020e4 <HAL_RCC_OscConfig>:
 80020e4:	e92d 41f3 	stmdb	sp!, {r0, r1, r4, r5, r6, r7, r8, lr}
 80020e8:	4605      	mov	r5, r0
 80020ea:	b338      	cbz	r0, 800213c <HAL_RCC_OscConfig+0x58>
 80020ec:	6803      	ldr	r3, [r0, #0]
 80020ee:	07db      	lsls	r3, r3, #31
 80020f0:	d410      	bmi.n	8002114 <HAL_RCC_OscConfig+0x30>
 80020f2:	682b      	ldr	r3, [r5, #0]
 80020f4:	079f      	lsls	r7, r3, #30
 80020f6:	d45e      	bmi.n	80021b6 <HAL_RCC_OscConfig+0xd2>
 80020f8:	682b      	ldr	r3, [r5, #0]
 80020fa:	0719      	lsls	r1, r3, #28
 80020fc:	f100 8095 	bmi.w	800222a <HAL_RCC_OscConfig+0x146>
 8002100:	682b      	ldr	r3, [r5, #0]
 8002102:	075a      	lsls	r2, r3, #29
 8002104:	f100 80bf 	bmi.w	8002286 <HAL_RCC_OscConfig+0x1a2>
 8002108:	69e8      	ldr	r0, [r5, #28]
 800210a:	2800      	cmp	r0, #0
 800210c:	f040 812c 	bne.w	8002368 <HAL_RCC_OscConfig+0x284>
 8002110:	2000      	movs	r0, #0
 8002112:	e029      	b.n	8002168 <HAL_RCC_OscConfig+0x84>
 8002114:	4c8f      	ldr	r4, [pc, #572]	; (8002354 <HAL_RCC_OscConfig+0x270>)
 8002116:	6863      	ldr	r3, [r4, #4]
 8002118:	f003 030c 	and.w	r3, r3, #12
 800211c:	2b04      	cmp	r3, #4
 800211e:	d007      	beq.n	8002130 <HAL_RCC_OscConfig+0x4c>
 8002120:	6863      	ldr	r3, [r4, #4]
 8002122:	f003 030c 	and.w	r3, r3, #12
 8002126:	2b08      	cmp	r3, #8
 8002128:	d10a      	bne.n	8002140 <HAL_RCC_OscConfig+0x5c>
 800212a:	6863      	ldr	r3, [r4, #4]
 800212c:	03de      	lsls	r6, r3, #15
 800212e:	d507      	bpl.n	8002140 <HAL_RCC_OscConfig+0x5c>
 8002130:	6823      	ldr	r3, [r4, #0]
 8002132:	039c      	lsls	r4, r3, #14
 8002134:	d5dd      	bpl.n	80020f2 <HAL_RCC_OscConfig+0xe>
 8002136:	686b      	ldr	r3, [r5, #4]
 8002138:	2b00      	cmp	r3, #0
 800213a:	d1da      	bne.n	80020f2 <HAL_RCC_OscConfig+0xe>
 800213c:	2001      	movs	r0, #1
 800213e:	e013      	b.n	8002168 <HAL_RCC_OscConfig+0x84>
 8002140:	686b      	ldr	r3, [r5, #4]
 8002142:	f5b3 3f80 	cmp.w	r3, #65536	; 0x10000
 8002146:	d112      	bne.n	800216e <HAL_RCC_OscConfig+0x8a>
 8002148:	6823      	ldr	r3, [r4, #0]
 800214a:	f443 3380 	orr.w	r3, r3, #65536	; 0x10000
 800214e:	6023      	str	r3, [r4, #0]
 8002150:	f7fe fd0c 	bl	8000b6c <HAL_GetTick>
 8002154:	4606      	mov	r6, r0
 8002156:	6823      	ldr	r3, [r4, #0]
 8002158:	0398      	lsls	r0, r3, #14
 800215a:	d4ca      	bmi.n	80020f2 <HAL_RCC_OscConfig+0xe>
 800215c:	f7fe fd06 	bl	8000b6c <HAL_GetTick>
 8002160:	1b80      	subs	r0, r0, r6
 8002162:	2864      	cmp	r0, #100	; 0x64
 8002164:	d9f7      	bls.n	8002156 <HAL_RCC_OscConfig+0x72>
 8002166:	2003      	movs	r0, #3
 8002168:	b002      	add	sp, #8
 800216a:	e8bd 81f0 	ldmia.w	sp!, {r4, r5, r6, r7, r8, pc}
 800216e:	b99b      	cbnz	r3, 8002198 <HAL_RCC_OscConfig+0xb4>
 8002170:	6823      	ldr	r3, [r4, #0]
 8002172:	f423 3380 	bic.w	r3, r3, #65536	; 0x10000
 8002176:	6023      	str	r3, [r4, #0]
 8002178:	6823      	ldr	r3, [r4, #0]
 800217a:	f423 2380 	bic.w	r3, r3, #262144	; 0x40000
 800217e:	6023      	str	r3, [r4, #0]
 8002180:	f7fe fcf4 	bl	8000b6c <HAL_GetTick>
 8002184:	4606      	mov	r6, r0
 8002186:	6823      	ldr	r3, [r4, #0]
 8002188:	0399      	lsls	r1, r3, #14
 800218a:	d5b2      	bpl.n	80020f2 <HAL_RCC_OscConfig+0xe>
 800218c:	f7fe fcee 	bl	8000b6c <HAL_GetTick>
 8002190:	1b80      	subs	r0, r0, r6
 8002192:	2864      	cmp	r0, #100	; 0x64
 8002194:	d9f7      	bls.n	8002186 <HAL_RCC_OscConfig+0xa2>
 8002196:	e7e6      	b.n	8002166 <HAL_RCC_OscConfig+0x82>
 8002198:	f5b3 2fa0 	cmp.w	r3, #327680	; 0x50000
 800219c:	6823      	ldr	r3, [r4, #0]
 800219e:	d103      	bne.n	80021a8 <HAL_RCC_OscConfig+0xc4>
 80021a0:	f443 2380 	orr.w	r3, r3, #262144	; 0x40000
 80021a4:	6023      	str	r3, [r4, #0]
 80021a6:	e7cf      	b.n	8002148 <HAL_RCC_OscConfig+0x64>
 80021a8:	f423 3380 	bic.w	r3, r3, #65536	; 0x10000
 80021ac:	6023      	str	r3, [r4, #0]
 80021ae:	6823      	ldr	r3, [r4, #0]
 80021b0:	f423 2380 	bic.w	r3, r3, #262144	; 0x40000
 80021b4:	e7cb      	b.n	800214e <HAL_RCC_OscConfig+0x6a>
 80021b6:	4c67      	ldr	r4, [pc, #412]	; (8002354 <HAL_RCC_OscConfig+0x270>)
 80021b8:	6863      	ldr	r3, [r4, #4]
 80021ba:	f013 0f0c 	tst.w	r3, #12
 80021be:	d007      	beq.n	80021d0 <HAL_RCC_OscConfig+0xec>
 80021c0:	6863      	ldr	r3, [r4, #4]
 80021c2:	f003 030c 	and.w	r3, r3, #12
 80021c6:	2b08      	cmp	r3, #8
 80021c8:	d110      	bne.n	80021ec <HAL_RCC_OscConfig+0x108>
 80021ca:	6863      	ldr	r3, [r4, #4]
 80021cc:	03da      	lsls	r2, r3, #15
 80021ce:	d40d      	bmi.n	80021ec <HAL_RCC_OscConfig+0x108>
 80021d0:	6823      	ldr	r3, [r4, #0]
 80021d2:	079b      	lsls	r3, r3, #30
 80021d4:	d502      	bpl.n	80021dc <HAL_RCC_OscConfig+0xf8>
 80021d6:	692b      	ldr	r3, [r5, #16]
 80021d8:	2b01      	cmp	r3, #1
 80021da:	d1af      	bne.n	800213c <HAL_RCC_OscConfig+0x58>
 80021dc:	6823      	ldr	r3, [r4, #0]
 80021de:	696a      	ldr	r2, [r5, #20]
 80021e0:	f023 03f8 	bic.w	r3, r3, #248	; 0xf8
 80021e4:	ea43 03c2 	orr.w	r3, r3, r2, lsl #3
 80021e8:	6023      	str	r3, [r4, #0]
 80021ea:	e785      	b.n	80020f8 <HAL_RCC_OscConfig+0x14>
 80021ec:	692a      	ldr	r2, [r5, #16]
 80021ee:	4b5a      	ldr	r3, [pc, #360]	; (8002358 <HAL_RCC_OscConfig+0x274>)
 80021f0:	b16a      	cbz	r2, 800220e <HAL_RCC_OscConfig+0x12a>
 80021f2:	2201      	movs	r2, #1
 80021f4:	601a      	str	r2, [r3, #0]
 80021f6:	f7fe fcb9 	bl	8000b6c <HAL_GetTick>
 80021fa:	4606      	mov	r6, r0
 80021fc:	6823      	ldr	r3, [r4, #0]
 80021fe:	079f      	lsls	r7, r3, #30
 8002200:	d4ec      	bmi.n	80021dc <HAL_RCC_OscConfig+0xf8>
 8002202:	f7fe fcb3 	bl	8000b6c <HAL_GetTick>
 8002206:	1b80      	subs	r0, r0, r6
 8002208:	2802      	cmp	r0, #2
 800220a:	d9f7      	bls.n	80021fc <HAL_RCC_OscConfig+0x118>
 800220c:	e7ab      	b.n	8002166 <HAL_RCC_OscConfig+0x82>
 800220e:	601a      	str	r2, [r3, #0]
 8002210:	f7fe fcac 	bl	8000b6c <HAL_GetTick>
 8002214:	4606      	mov	r6, r0
 8002216:	6823      	ldr	r3, [r4, #0]
 8002218:	0798      	lsls	r0, r3, #30
 800221a:	f57f af6d 	bpl.w	80020f8 <HAL_RCC_OscConfig+0x14>
 800221e:	f7fe fca5 	bl	8000b6c <HAL_GetTick>
 8002222:	1b80      	subs	r0, r0, r6
 8002224:	2802      	cmp	r0, #2
 8002226:	d9f6      	bls.n	8002216 <HAL_RCC_OscConfig+0x132>
 8002228:	e79d      	b.n	8002166 <HAL_RCC_OscConfig+0x82>
 800222a:	69aa      	ldr	r2, [r5, #24]
 800222c:	4e49      	ldr	r6, [pc, #292]	; (8002354 <HAL_RCC_OscConfig+0x270>)
 800222e:	4b4b      	ldr	r3, [pc, #300]	; (800235c <HAL_RCC_OscConfig+0x278>)
 8002230:	b1da      	cbz	r2, 800226a <HAL_RCC_OscConfig+0x186>
 8002232:	2201      	movs	r2, #1
 8002234:	601a      	str	r2, [r3, #0]
 8002236:	f7fe fc99 	bl	8000b6c <HAL_GetTick>
 800223a:	4604      	mov	r4, r0
 800223c:	6a73      	ldr	r3, [r6, #36]	; 0x24
 800223e:	079b      	lsls	r3, r3, #30
 8002240:	d50d      	bpl.n	800225e <HAL_RCC_OscConfig+0x17a>
 8002242:	f44f 52fa 	mov.w	r2, #8000	; 0x1f40
 8002246:	4b46      	ldr	r3, [pc, #280]	; (8002360 <HAL_RCC_OscConfig+0x27c>)
 8002248:	681b      	ldr	r3, [r3, #0]
 800224a:	fbb3 f3f2 	udiv	r3, r3, r2
 800224e:	9301      	str	r3, [sp, #4]
 8002250:	bf00      	nop
 8002252:	9b01      	ldr	r3, [sp, #4]
 8002254:	1e5a      	subs	r2, r3, #1
 8002256:	9201      	str	r2, [sp, #4]
 8002258:	2b00      	cmp	r3, #0
 800225a:	d1f9      	bne.n	8002250 <HAL_RCC_OscConfig+0x16c>
 800225c:	e750      	b.n	8002100 <HAL_RCC_OscConfig+0x1c>
 800225e:	f7fe fc85 	bl	8000b6c <HAL_GetTick>
 8002262:	1b00      	subs	r0, r0, r4
 8002264:	2802      	cmp	r0, #2
 8002266:	d9e9      	bls.n	800223c <HAL_RCC_OscConfig+0x158>
 8002268:	e77d      	b.n	8002166 <HAL_RCC_OscConfig+0x82>
 800226a:	601a      	str	r2, [r3, #0]
 800226c:	f7fe fc7e 	bl	8000b6c <HAL_GetTick>
 8002270:	4604      	mov	r4, r0
 8002272:	6a73      	ldr	r3, [r6, #36]	; 0x24
 8002274:	079f      	lsls	r7, r3, #30
 8002276:	f57f af43 	bpl.w	8002100 <HAL_RCC_OscConfig+0x1c>
 800227a:	f7fe fc77 	bl	8000b6c <HAL_GetTick>
 800227e:	1b00      	subs	r0, r0, r4
 8002280:	2802      	cmp	r0, #2
 8002282:	d9f6      	bls.n	8002272 <HAL_RCC_OscConfig+0x18e>
 8002284:	e76f      	b.n	8002166 <HAL_RCC_OscConfig+0x82>
 8002286:	4c33      	ldr	r4, [pc, #204]	; (8002354 <HAL_RCC_OscConfig+0x270>)
 8002288:	69e3      	ldr	r3, [r4, #28]
 800228a:	00d8      	lsls	r0, r3, #3
 800228c:	d424      	bmi.n	80022d8 <HAL_RCC_OscConfig+0x1f4>
 800228e:	2701      	movs	r7, #1
 8002290:	69e3      	ldr	r3, [r4, #28]
 8002292:	f043 5380 	orr.w	r3, r3, #268435456	; 0x10000000
 8002296:	61e3      	str	r3, [r4, #28]
 8002298:	69e3      	ldr	r3, [r4, #28]
 800229a:	f003 5380 	and.w	r3, r3, #268435456	; 0x10000000
 800229e:	9300      	str	r3, [sp, #0]
 80022a0:	9b00      	ldr	r3, [sp, #0]
 80022a2:	4e30      	ldr	r6, [pc, #192]	; (8002364 <HAL_RCC_OscConfig+0x280>)
 80022a4:	6833      	ldr	r3, [r6, #0]
 80022a6:	05d9      	lsls	r1, r3, #23
 80022a8:	d518      	bpl.n	80022dc <HAL_RCC_OscConfig+0x1f8>
 80022aa:	68eb      	ldr	r3, [r5, #12]
 80022ac:	2b01      	cmp	r3, #1
 80022ae:	d126      	bne.n	80022fe <HAL_RCC_OscConfig+0x21a>
 80022b0:	6a23      	ldr	r3, [r4, #32]
 80022b2:	f043 0301 	orr.w	r3, r3, #1
 80022b6:	6223      	str	r3, [r4, #32]
 80022b8:	f7fe fc58 	bl	8000b6c <HAL_GetTick>
 80022bc:	f241 3888 	movw	r8, #5000	; 0x1388
 80022c0:	4606      	mov	r6, r0
 80022c2:	6a23      	ldr	r3, [r4, #32]
 80022c4:	079b      	lsls	r3, r3, #30
 80022c6:	d53f      	bpl.n	8002348 <HAL_RCC_OscConfig+0x264>
 80022c8:	2f00      	cmp	r7, #0
 80022ca:	f43f af1d 	beq.w	8002108 <HAL_RCC_OscConfig+0x24>
 80022ce:	69e3      	ldr	r3, [r4, #28]
 80022d0:	f023 5380 	bic.w	r3, r3, #268435456	; 0x10000000
 80022d4:	61e3      	str	r3, [r4, #28]
 80022d6:	e717      	b.n	8002108 <HAL_RCC_OscConfig+0x24>
 80022d8:	2700      	movs	r7, #0
 80022da:	e7e2      	b.n	80022a2 <HAL_RCC_OscConfig+0x1be>
 80022dc:	6833      	ldr	r3, [r6, #0]
 80022de:	f443 7380 	orr.w	r3, r3, #256	; 0x100
 80022e2:	6033      	str	r3, [r6, #0]
 80022e4:	f7fe fc42 	bl	8000b6c <HAL_GetTick>
 80022e8:	4680      	mov	r8, r0
 80022ea:	6833      	ldr	r3, [r6, #0]
 80022ec:	05da      	lsls	r2, r3, #23
 80022ee:	d4dc      	bmi.n	80022aa <HAL_RCC_OscConfig+0x1c6>
 80022f0:	f7fe fc3c 	bl	8000b6c <HAL_GetTick>
 80022f4:	eba0 0008 	sub.w	r0, r0, r8
 80022f8:	2864      	cmp	r0, #100	; 0x64
 80022fa:	d9f6      	bls.n	80022ea <HAL_RCC_OscConfig+0x206>
 80022fc:	e733      	b.n	8002166 <HAL_RCC_OscConfig+0x82>
 80022fe:	b9ab      	cbnz	r3, 800232c <HAL_RCC_OscConfig+0x248>
 8002300:	6a23      	ldr	r3, [r4, #32]
 8002302:	f241 3888 	movw	r8, #5000	; 0x1388
 8002306:	f023 0301 	bic.w	r3, r3, #1
 800230a:	6223      	str	r3, [r4, #32]
 800230c:	6a23      	ldr	r3, [r4, #32]
 800230e:	f023 0304 	bic.w	r3, r3, #4
 8002312:	6223      	str	r3, [r4, #32]
 8002314:	f7fe fc2a 	bl	8000b6c <HAL_GetTick>
 8002318:	4606      	mov	r6, r0
 800231a:	6a23      	ldr	r3, [r4, #32]
 800231c:	0798      	lsls	r0, r3, #30
 800231e:	d5d3      	bpl.n	80022c8 <HAL_RCC_OscConfig+0x1e4>
 8002320:	f7fe fc24 	bl	8000b6c <HAL_GetTick>
 8002324:	1b80      	subs	r0, r0, r6
 8002326:	4540      	cmp	r0, r8
 8002328:	d9f7      	bls.n	800231a <HAL_RCC_OscConfig+0x236>
 800232a:	e71c      	b.n	8002166 <HAL_RCC_OscConfig+0x82>
 800232c:	2b05      	cmp	r3, #5
 800232e:	6a23      	ldr	r3, [r4, #32]
 8002330:	d103      	bne.n	800233a <HAL_RCC_OscConfig+0x256>
 8002332:	f043 0304 	orr.w	r3, r3, #4
 8002336:	6223      	str	r3, [r4, #32]
 8002338:	e7ba      	b.n	80022b0 <HAL_RCC_OscConfig+0x1cc>
 800233a:	f023 0301 	bic.w	r3, r3, #1
 800233e:	6223      	str	r3, [r4, #32]
 8002340:	6a23      	ldr	r3, [r4, #32]
 8002342:	f023 0304 	bic.w	r3, r3, #4
 8002346:	e7b6      	b.n	80022b6 <HAL_RCC_OscConfig+0x1d2>
 8002348:	f7fe fc10 	bl	8000b6c <HAL_GetTick>
 800234c:	1b80      	subs	r0, r0, r6
 800234e:	4540      	cmp	r0, r8
 8002350:	d9b7      	bls.n	80022c2 <HAL_RCC_OscConfig+0x1de>
 8002352:	e708      	b.n	8002166 <HAL_RCC_OscConfig+0x82>
 8002354:	40021000 	.word	0x40021000
 8002358:	42420000 	.word	0x42420000
 800235c:	42420480 	.word	0x42420480
 8002360:	20000004 	.word	0x20000004
 8002364:	40007000 	.word	0x40007000
 8002368:	4b2a      	ldr	r3, [pc, #168]	; (8002414 <HAL_RCC_OscConfig+0x330>)
 800236a:	685a      	ldr	r2, [r3, #4]
 800236c:	461c      	mov	r4, r3
 800236e:	f002 020c 	and.w	r2, r2, #12
 8002372:	2a08      	cmp	r2, #8
 8002374:	d03d      	beq.n	80023f2 <HAL_RCC_OscConfig+0x30e>
 8002376:	2300      	movs	r3, #0
 8002378:	4e27      	ldr	r6, [pc, #156]	; (8002418 <HAL_RCC_OscConfig+0x334>)
 800237a:	2802      	cmp	r0, #2
 800237c:	6033      	str	r3, [r6, #0]
 800237e:	d12b      	bne.n	80023d8 <HAL_RCC_OscConfig+0x2f4>
 8002380:	f7fe fbf4 	bl	8000b6c <HAL_GetTick>
 8002384:	4607      	mov	r7, r0
 8002386:	6823      	ldr	r3, [r4, #0]
 8002388:	0199      	lsls	r1, r3, #6
 800238a:	d41f      	bmi.n	80023cc <HAL_RCC_OscConfig+0x2e8>
 800238c:	6a2b      	ldr	r3, [r5, #32]
 800238e:	f5b3 3f80 	cmp.w	r3, #65536	; 0x10000
 8002392:	d105      	bne.n	80023a0 <HAL_RCC_OscConfig+0x2bc>
 8002394:	6862      	ldr	r2, [r4, #4]
 8002396:	68a9      	ldr	r1, [r5, #8]
 8002398:	f422 3200 	bic.w	r2, r2, #131072	; 0x20000
 800239c:	430a      	orrs	r2, r1
 800239e:	6062      	str	r2, [r4, #4]
 80023a0:	6a69      	ldr	r1, [r5, #36]	; 0x24
 80023a2:	6862      	ldr	r2, [r4, #4]
 80023a4:	430b      	orrs	r3, r1
 80023a6:	f422 1274 	bic.w	r2, r2, #3997696	; 0x3d0000
 80023aa:	4313      	orrs	r3, r2
 80023ac:	6063      	str	r3, [r4, #4]
 80023ae:	2301      	movs	r3, #1
 80023b0:	6033      	str	r3, [r6, #0]
 80023b2:	f7fe fbdb 	bl	8000b6c <HAL_GetTick>
 80023b6:	4605      	mov	r5, r0
 80023b8:	6823      	ldr	r3, [r4, #0]
 80023ba:	019a      	lsls	r2, r3, #6
 80023bc:	f53f aea8 	bmi.w	8002110 <HAL_RCC_OscConfig+0x2c>
 80023c0:	f7fe fbd4 	bl	8000b6c <HAL_GetTick>
 80023c4:	1b40      	subs	r0, r0, r5
 80023c6:	2802      	cmp	r0, #2
 80023c8:	d9f6      	bls.n	80023b8 <HAL_RCC_OscConfig+0x2d4>
 80023ca:	e6cc      	b.n	8002166 <HAL_RCC_OscConfig+0x82>
 80023cc:	f7fe fbce 	bl	8000b6c <HAL_GetTick>
 80023d0:	1bc0      	subs	r0, r0, r7
 80023d2:	2802      	cmp	r0, #2
 80023d4:	d9d7      	bls.n	8002386 <HAL_RCC_OscConfig+0x2a2>
 80023d6:	e6c6      	b.n	8002166 <HAL_RCC_OscConfig+0x82>
 80023d8:	f7fe fbc8 	bl	8000b6c <HAL_GetTick>
 80023dc:	4605      	mov	r5, r0
 80023de:	6823      	ldr	r3, [r4, #0]
 80023e0:	019b      	lsls	r3, r3, #6
 80023e2:	f57f ae95 	bpl.w	8002110 <HAL_RCC_OscConfig+0x2c>
 80023e6:	f7fe fbc1 	bl	8000b6c <HAL_GetTick>
 80023ea:	1b40      	subs	r0, r0, r5
 80023ec:	2802      	cmp	r0, #2
 80023ee:	d9f6      	bls.n	80023de <HAL_RCC_OscConfig+0x2fa>
 80023f0:	e6b9      	b.n	8002166 <HAL_RCC_OscConfig+0x82>
 80023f2:	2801      	cmp	r0, #1
 80023f4:	f43f aeb8 	beq.w	8002168 <HAL_RCC_OscConfig+0x84>
 80023f8:	685b      	ldr	r3, [r3, #4]
 80023fa:	6a2a      	ldr	r2, [r5, #32]
 80023fc:	f403 3180 	and.w	r1, r3, #65536	; 0x10000
 8002400:	4291      	cmp	r1, r2
 8002402:	f47f ae9b 	bne.w	800213c <HAL_RCC_OscConfig+0x58>
 8002406:	6a6a      	ldr	r2, [r5, #36]	; 0x24
 8002408:	f403 1370 	and.w	r3, r3, #3932160	; 0x3c0000
 800240c:	4293      	cmp	r3, r2
 800240e:	f43f ae7f 	beq.w	8002110 <HAL_RCC_OscConfig+0x2c>
 8002412:	e693      	b.n	800213c <HAL_RCC_OscConfig+0x58>
 8002414:	40021000 	.word	0x40021000
 8002418:	42420060 	.word	0x42420060

0800241c <HAL_RCC_GetSysClockFreq>:
 800241c:	b530      	push	{r4, r5, lr}
 800241e:	4b18      	ldr	r3, [pc, #96]	; (8002480 <HAL_RCC_GetSysClockFreq+0x64>)
 8002420:	b087      	sub	sp, #28
 8002422:	ac02      	add	r4, sp, #8
 8002424:	f103 0510 	add.w	r5, r3, #16
 8002428:	4622      	mov	r2, r4
 800242a:	6818      	ldr	r0, [r3, #0]
 800242c:	6859      	ldr	r1, [r3, #4]
 800242e:	3308      	adds	r3, #8
 8002430:	c203      	stmia	r2!, {r0, r1}
 8002432:	42ab      	cmp	r3, r5
 8002434:	4614      	mov	r4, r2
 8002436:	d1f7      	bne.n	8002428 <HAL_RCC_GetSysClockFreq+0xc>
 8002438:	f240 2301 	movw	r3, #513	; 0x201
 800243c:	4911      	ldr	r1, [pc, #68]	; (8002484 <HAL_RCC_GetSysClockFreq+0x68>)
 800243e:	f8ad 3004 	strh.w	r3, [sp, #4]
 8002442:	684b      	ldr	r3, [r1, #4]
 8002444:	f003 020c 	and.w	r2, r3, #12
 8002448:	2a08      	cmp	r2, #8
 800244a:	d117      	bne.n	800247c <HAL_RCC_GetSysClockFreq+0x60>
 800244c:	f3c3 4283 	ubfx	r2, r3, #18, #4
 8002450:	a806      	add	r0, sp, #24
 8002452:	4402      	add	r2, r0
 8002454:	03db      	lsls	r3, r3, #15
 8002456:	f812 2c10 	ldrb.w	r2, [r2, #-16]
 800245a:	d50c      	bpl.n	8002476 <HAL_RCC_GetSysClockFreq+0x5a>
 800245c:	684b      	ldr	r3, [r1, #4]
 800245e:	480a      	ldr	r0, [pc, #40]	; (8002488 <HAL_RCC_GetSysClockFreq+0x6c>)
 8002460:	f3c3 4340 	ubfx	r3, r3, #17, #1
 8002464:	4350      	muls	r0, r2
 8002466:	aa06      	add	r2, sp, #24
 8002468:	4413      	add	r3, r2
 800246a:	f813 3c14 	ldrb.w	r3, [r3, #-20]
 800246e:	fbb0 f0f3 	udiv	r0, r0, r3
 8002472:	b007      	add	sp, #28
 8002474:	bd30      	pop	{r4, r5, pc}
 8002476:	4805      	ldr	r0, [pc, #20]	; (800248c <HAL_RCC_GetSysClockFreq+0x70>)
 8002478:	4350      	muls	r0, r2
 800247a:	e7fa      	b.n	8002472 <HAL_RCC_GetSysClockFreq+0x56>
 800247c:	4802      	ldr	r0, [pc, #8]	; (8002488 <HAL_RCC_GetSysClockFreq+0x6c>)
 800247e:	e7f8      	b.n	8002472 <HAL_RCC_GetSysClockFreq+0x56>
 8002480:	0800494f 	.word	0x0800494f
 8002484:	40021000 	.word	0x40021000
 8002488:	007a1200 	.word	0x007a1200
 800248c:	003d0900 	.word	0x003d0900

08002490 <HAL_RCC_ClockConfig>:
 8002490:	e92d 41f0 	stmdb	sp!, {r4, r5, r6, r7, r8, lr}
 8002494:	460d      	mov	r5, r1
 8002496:	4604      	mov	r4, r0
 8002498:	b910      	cbnz	r0, 80024a0 <HAL_RCC_ClockConfig+0x10>
 800249a:	2001      	movs	r0, #1
 800249c:	e8bd 81f0 	ldmia.w	sp!, {r4, r5, r6, r7, r8, pc}
 80024a0:	4a44      	ldr	r2, [pc, #272]	; (80025b4 <HAL_RCC_ClockConfig+0x124>)
 80024a2:	6813      	ldr	r3, [r2, #0]
 80024a4:	f003 0307 	and.w	r3, r3, #7
 80024a8:	428b      	cmp	r3, r1
 80024aa:	d328      	bcc.n	80024fe <HAL_RCC_ClockConfig+0x6e>
 80024ac:	6821      	ldr	r1, [r4, #0]
 80024ae:	078e      	lsls	r6, r1, #30
 80024b0:	d430      	bmi.n	8002514 <HAL_RCC_ClockConfig+0x84>
 80024b2:	07ca      	lsls	r2, r1, #31
 80024b4:	d443      	bmi.n	800253e <HAL_RCC_ClockConfig+0xae>
 80024b6:	4a3f      	ldr	r2, [pc, #252]	; (80025b4 <HAL_RCC_ClockConfig+0x124>)
 80024b8:	6813      	ldr	r3, [r2, #0]
 80024ba:	f003 0307 	and.w	r3, r3, #7
 80024be:	42ab      	cmp	r3, r5
 80024c0:	d865      	bhi.n	800258e <HAL_RCC_ClockConfig+0xfe>
 80024c2:	6822      	ldr	r2, [r4, #0]
 80024c4:	4d3c      	ldr	r5, [pc, #240]	; (80025b8 <HAL_RCC_ClockConfig+0x128>)
 80024c6:	f012 0f04 	tst.w	r2, #4
 80024ca:	d16c      	bne.n	80025a6 <HAL_RCC_ClockConfig+0x116>
 80024cc:	0713      	lsls	r3, r2, #28
 80024ce:	d506      	bpl.n	80024de <HAL_RCC_ClockConfig+0x4e>
 80024d0:	686b      	ldr	r3, [r5, #4]
 80024d2:	6922      	ldr	r2, [r4, #16]
 80024d4:	f423 5360 	bic.w	r3, r3, #14336	; 0x3800
 80024d8:	ea43 03c2 	orr.w	r3, r3, r2, lsl #3
 80024dc:	606b      	str	r3, [r5, #4]
 80024de:	f7ff ff9d 	bl	800241c <HAL_RCC_GetSysClockFreq>
 80024e2:	686b      	ldr	r3, [r5, #4]
 80024e4:	4a35      	ldr	r2, [pc, #212]	; (80025bc <HAL_RCC_ClockConfig+0x12c>)
 80024e6:	f3c3 1303 	ubfx	r3, r3, #4, #4
 80024ea:	5cd3      	ldrb	r3, [r2, r3]
 80024ec:	40d8      	lsrs	r0, r3
 80024ee:	4b34      	ldr	r3, [pc, #208]	; (80025c0 <HAL_RCC_ClockConfig+0x130>)
 80024f0:	6018      	str	r0, [r3, #0]
 80024f2:	4b34      	ldr	r3, [pc, #208]	; (80025c4 <HAL_RCC_ClockConfig+0x134>)
 80024f4:	6818      	ldr	r0, [r3, #0]
 80024f6:	f7fe faf7 	bl	8000ae8 <HAL_InitTick>
 80024fa:	2000      	movs	r0, #0
 80024fc:	e7ce      	b.n	800249c <HAL_RCC_ClockConfig+0xc>
 80024fe:	6813      	ldr	r3, [r2, #0]
 8002500:	f023 0307 	bic.w	r3, r3, #7
 8002504:	430b      	orrs	r3, r1
 8002506:	6013      	str	r3, [r2, #0]
 8002508:	6813      	ldr	r3, [r2, #0]
 800250a:	f003 0307 	and.w	r3, r3, #7
 800250e:	428b      	cmp	r3, r1
 8002510:	d1c3      	bne.n	800249a <HAL_RCC_ClockConfig+0xa>
 8002512:	e7cb      	b.n	80024ac <HAL_RCC_ClockConfig+0x1c>
 8002514:	4b28      	ldr	r3, [pc, #160]	; (80025b8 <HAL_RCC_ClockConfig+0x128>)
 8002516:	f011 0f04 	tst.w	r1, #4
 800251a:	bf1e      	ittt	ne
 800251c:	685a      	ldrne	r2, [r3, #4]
 800251e:	f442 62e0 	orrne.w	r2, r2, #1792	; 0x700
 8002522:	605a      	strne	r2, [r3, #4]
 8002524:	0708      	lsls	r0, r1, #28
 8002526:	bf42      	ittt	mi
 8002528:	685a      	ldrmi	r2, [r3, #4]
 800252a:	f442 5260 	orrmi.w	r2, r2, #14336	; 0x3800
 800252e:	605a      	strmi	r2, [r3, #4]
 8002530:	685a      	ldr	r2, [r3, #4]
 8002532:	68a0      	ldr	r0, [r4, #8]
 8002534:	f022 02f0 	bic.w	r2, r2, #240	; 0xf0
 8002538:	4302      	orrs	r2, r0
 800253a:	605a      	str	r2, [r3, #4]
 800253c:	e7b9      	b.n	80024b2 <HAL_RCC_ClockConfig+0x22>
 800253e:	6862      	ldr	r2, [r4, #4]
 8002540:	4e1d      	ldr	r6, [pc, #116]	; (80025b8 <HAL_RCC_ClockConfig+0x128>)
 8002542:	2a01      	cmp	r2, #1
 8002544:	6833      	ldr	r3, [r6, #0]
 8002546:	d11a      	bne.n	800257e <HAL_RCC_ClockConfig+0xee>
 8002548:	f413 3f00 	tst.w	r3, #131072	; 0x20000
 800254c:	d0a5      	beq.n	800249a <HAL_RCC_ClockConfig+0xa>
 800254e:	6873      	ldr	r3, [r6, #4]
 8002550:	f241 3888 	movw	r8, #5000	; 0x1388
 8002554:	f023 0303 	bic.w	r3, r3, #3
 8002558:	4313      	orrs	r3, r2
 800255a:	6073      	str	r3, [r6, #4]
 800255c:	f7fe fb06 	bl	8000b6c <HAL_GetTick>
 8002560:	4607      	mov	r7, r0
 8002562:	6873      	ldr	r3, [r6, #4]
 8002564:	6862      	ldr	r2, [r4, #4]
 8002566:	f003 030c 	and.w	r3, r3, #12
 800256a:	ebb3 0f82 	cmp.w	r3, r2, lsl #2
 800256e:	d0a2      	beq.n	80024b6 <HAL_RCC_ClockConfig+0x26>
 8002570:	f7fe fafc 	bl	8000b6c <HAL_GetTick>
 8002574:	1bc0      	subs	r0, r0, r7
 8002576:	4540      	cmp	r0, r8
 8002578:	d9f3      	bls.n	8002562 <HAL_RCC_ClockConfig+0xd2>
 800257a:	2003      	movs	r0, #3
 800257c:	e78e      	b.n	800249c <HAL_RCC_ClockConfig+0xc>
 800257e:	2a02      	cmp	r2, #2
 8002580:	d102      	bne.n	8002588 <HAL_RCC_ClockConfig+0xf8>
 8002582:	f013 7f00 	tst.w	r3, #33554432	; 0x2000000
 8002586:	e7e1      	b.n	800254c <HAL_RCC_ClockConfig+0xbc>
 8002588:	f013 0f02 	tst.w	r3, #2
 800258c:	e7de      	b.n	800254c <HAL_RCC_ClockConfig+0xbc>
 800258e:	6813      	ldr	r3, [r2, #0]
 8002590:	f023 0307 	bic.w	r3, r3, #7
 8002594:	432b      	orrs	r3, r5
 8002596:	6013      	str	r3, [r2, #0]
 8002598:	6813      	ldr	r3, [r2, #0]
 800259a:	f003 0307 	and.w	r3, r3, #7
 800259e:	42ab      	cmp	r3, r5
 80025a0:	f47f af7b 	bne.w	800249a <HAL_RCC_ClockConfig+0xa>
 80025a4:	e78d      	b.n	80024c2 <HAL_RCC_ClockConfig+0x32>
 80025a6:	686b      	ldr	r3, [r5, #4]
 80025a8:	68e1      	ldr	r1, [r4, #12]
 80025aa:	f423 63e0 	bic.w	r3, r3, #1792	; 0x700
 80025ae:	430b      	orrs	r3, r1
 80025b0:	606b      	str	r3, [r5, #4]
 80025b2:	e78b      	b.n	80024cc <HAL_RCC_ClockConfig+0x3c>
 80025b4:	40022000 	.word	0x40022000
 80025b8:	40021000 	.word	0x40021000
 80025bc:	08004937 	.word	0x08004937
 80025c0:	20000004 	.word	0x20000004
 80025c4:	2000000c 	.word	0x2000000c

080025c8 <HAL_RCC_GetPCLK1Freq>:
 80025c8:	4b04      	ldr	r3, [pc, #16]	; (80025dc <HAL_RCC_GetPCLK1Freq+0x14>)
 80025ca:	4a05      	ldr	r2, [pc, #20]	; (80025e0 <HAL_RCC_GetPCLK1Freq+0x18>)
 80025cc:	685b      	ldr	r3, [r3, #4]
 80025ce:	f3c3 2302 	ubfx	r3, r3, #8, #3
 80025d2:	5cd3      	ldrb	r3, [r2, r3]
 80025d4:	4a03      	ldr	r2, [pc, #12]	; (80025e4 <HAL_RCC_GetPCLK1Freq+0x1c>)
 80025d6:	6810      	ldr	r0, [r2, #0]
 80025d8:	40d8      	lsrs	r0, r3
 80025da:	4770      	bx	lr
 80025dc:	40021000 	.word	0x40021000
 80025e0:	08004947 	.word	0x08004947
 80025e4:	20000004 	.word	0x20000004

080025e8 <HAL_RCC_GetPCLK2Freq>:
 80025e8:	4b04      	ldr	r3, [pc, #16]	; (80025fc <HAL_RCC_GetPCLK2Freq+0x14>)
 80025ea:	4a05      	ldr	r2, [pc, #20]	; (8002600 <HAL_RCC_GetPCLK2Freq+0x18>)
 80025ec:	685b      	ldr	r3, [r3, #4]
 80025ee:	f3c3 23c2 	ubfx	r3, r3, #11, #3
 80025f2:	5cd3      	ldrb	r3, [r2, r3]
 80025f4:	4a03      	ldr	r2, [pc, #12]	; (8002604 <HAL_RCC_GetPCLK2Freq+0x1c>)
 80025f6:	6810      	ldr	r0, [r2, #0]
 80025f8:	40d8      	lsrs	r0, r3
 80025fa:	4770      	bx	lr
 80025fc:	40021000 	.word	0x40021000
 8002600:	08004947 	.word	0x08004947
 8002604:	20000004 	.word	0x20000004

08002608 <HAL_RCCEx_PeriphCLKConfig>:
 8002608:	6803      	ldr	r3, [r0, #0]
 800260a:	e92d 41f3 	stmdb	sp!, {r0, r1, r4, r5, r6, r7, r8, lr}
 800260e:	07d9      	lsls	r1, r3, #31
 8002610:	4605      	mov	r5, r0
 8002612:	d520      	bpl.n	8002656 <HAL_RCCEx_PeriphCLKConfig+0x4e>
 8002614:	4c35      	ldr	r4, [pc, #212]	; (80026ec <HAL_RCCEx_PeriphCLKConfig+0xe4>)
 8002616:	69e3      	ldr	r3, [r4, #28]
 8002618:	00da      	lsls	r2, r3, #3
 800261a:	d432      	bmi.n	8002682 <HAL_RCCEx_PeriphCLKConfig+0x7a>
 800261c:	2701      	movs	r7, #1
 800261e:	69e3      	ldr	r3, [r4, #28]
 8002620:	f043 5380 	orr.w	r3, r3, #268435456	; 0x10000000
 8002624:	61e3      	str	r3, [r4, #28]
 8002626:	69e3      	ldr	r3, [r4, #28]
 8002628:	f003 5380 	and.w	r3, r3, #268435456	; 0x10000000
 800262c:	9301      	str	r3, [sp, #4]
 800262e:	9b01      	ldr	r3, [sp, #4]
 8002630:	4e2f      	ldr	r6, [pc, #188]	; (80026f0 <HAL_RCCEx_PeriphCLKConfig+0xe8>)
 8002632:	6833      	ldr	r3, [r6, #0]
 8002634:	05db      	lsls	r3, r3, #23
 8002636:	d526      	bpl.n	8002686 <HAL_RCCEx_PeriphCLKConfig+0x7e>
 8002638:	6a23      	ldr	r3, [r4, #32]
 800263a:	f413 7340 	ands.w	r3, r3, #768	; 0x300
 800263e:	d136      	bne.n	80026ae <HAL_RCCEx_PeriphCLKConfig+0xa6>
 8002640:	6a23      	ldr	r3, [r4, #32]
 8002642:	686a      	ldr	r2, [r5, #4]
 8002644:	f423 7340 	bic.w	r3, r3, #768	; 0x300
 8002648:	4313      	orrs	r3, r2
 800264a:	6223      	str	r3, [r4, #32]
 800264c:	b11f      	cbz	r7, 8002656 <HAL_RCCEx_PeriphCLKConfig+0x4e>
 800264e:	69e3      	ldr	r3, [r4, #28]
 8002650:	f023 5380 	bic.w	r3, r3, #268435456	; 0x10000000
 8002654:	61e3      	str	r3, [r4, #28]
 8002656:	6828      	ldr	r0, [r5, #0]
 8002658:	0783      	lsls	r3, r0, #30
 800265a:	d506      	bpl.n	800266a <HAL_RCCEx_PeriphCLKConfig+0x62>
 800265c:	4923      	ldr	r1, [pc, #140]	; (80026ec <HAL_RCCEx_PeriphCLKConfig+0xe4>)
 800265e:	68ab      	ldr	r3, [r5, #8]
 8002660:	684a      	ldr	r2, [r1, #4]
 8002662:	f422 4240 	bic.w	r2, r2, #49152	; 0xc000
 8002666:	431a      	orrs	r2, r3
 8002668:	604a      	str	r2, [r1, #4]
 800266a:	f010 0010 	ands.w	r0, r0, #16
 800266e:	d01b      	beq.n	80026a8 <HAL_RCCEx_PeriphCLKConfig+0xa0>
 8002670:	4a1e      	ldr	r2, [pc, #120]	; (80026ec <HAL_RCCEx_PeriphCLKConfig+0xe4>)
 8002672:	68e9      	ldr	r1, [r5, #12]
 8002674:	6853      	ldr	r3, [r2, #4]
 8002676:	2000      	movs	r0, #0
 8002678:	f423 0380 	bic.w	r3, r3, #4194304	; 0x400000
 800267c:	430b      	orrs	r3, r1
 800267e:	6053      	str	r3, [r2, #4]
 8002680:	e012      	b.n	80026a8 <HAL_RCCEx_PeriphCLKConfig+0xa0>
 8002682:	2700      	movs	r7, #0
 8002684:	e7d4      	b.n	8002630 <HAL_RCCEx_PeriphCLKConfig+0x28>
 8002686:	6833      	ldr	r3, [r6, #0]
 8002688:	f443 7380 	orr.w	r3, r3, #256	; 0x100
 800268c:	6033      	str	r3, [r6, #0]
 800268e:	f7fe fa6d 	bl	8000b6c <HAL_GetTick>
 8002692:	4680      	mov	r8, r0
 8002694:	6833      	ldr	r3, [r6, #0]
 8002696:	05d8      	lsls	r0, r3, #23
 8002698:	d4ce      	bmi.n	8002638 <HAL_RCCEx_PeriphCLKConfig+0x30>
 800269a:	f7fe fa67 	bl	8000b6c <HAL_GetTick>
 800269e:	eba0 0008 	sub.w	r0, r0, r8
 80026a2:	2864      	cmp	r0, #100	; 0x64
 80026a4:	d9f6      	bls.n	8002694 <HAL_RCCEx_PeriphCLKConfig+0x8c>
 80026a6:	2003      	movs	r0, #3
 80026a8:	b002      	add	sp, #8
 80026aa:	e8bd 81f0 	ldmia.w	sp!, {r4, r5, r6, r7, r8, pc}
 80026ae:	686a      	ldr	r2, [r5, #4]
 80026b0:	f402 7240 	and.w	r2, r2, #768	; 0x300
 80026b4:	429a      	cmp	r2, r3
 80026b6:	d0c3      	beq.n	8002640 <HAL_RCCEx_PeriphCLKConfig+0x38>
 80026b8:	2001      	movs	r0, #1
 80026ba:	4a0e      	ldr	r2, [pc, #56]	; (80026f4 <HAL_RCCEx_PeriphCLKConfig+0xec>)
 80026bc:	6a23      	ldr	r3, [r4, #32]
 80026be:	6010      	str	r0, [r2, #0]
 80026c0:	2000      	movs	r0, #0
 80026c2:	f423 7140 	bic.w	r1, r3, #768	; 0x300
 80026c6:	6010      	str	r0, [r2, #0]
 80026c8:	6221      	str	r1, [r4, #32]
 80026ca:	07d9      	lsls	r1, r3, #31
 80026cc:	d5b8      	bpl.n	8002640 <HAL_RCCEx_PeriphCLKConfig+0x38>
 80026ce:	f7fe fa4d 	bl	8000b6c <HAL_GetTick>
 80026d2:	f241 3888 	movw	r8, #5000	; 0x1388
 80026d6:	4606      	mov	r6, r0
 80026d8:	6a23      	ldr	r3, [r4, #32]
 80026da:	079a      	lsls	r2, r3, #30
 80026dc:	d4b0      	bmi.n	8002640 <HAL_RCCEx_PeriphCLKConfig+0x38>
 80026de:	f7fe fa45 	bl	8000b6c <HAL_GetTick>
 80026e2:	1b80      	subs	r0, r0, r6
 80026e4:	4540      	cmp	r0, r8
 80026e6:	d9f7      	bls.n	80026d8 <HAL_RCCEx_PeriphCLKConfig+0xd0>
 80026e8:	e7dd      	b.n	80026a6 <HAL_RCCEx_PeriphCLKConfig+0x9e>
 80026ea:	bf00      	nop
 80026ec:	40021000 	.word	0x40021000
 80026f0:	40007000 	.word	0x40007000
 80026f4:	42420440 	.word	0x42420440

080026f8 <UART_EndRxTransfer>:
 80026f8:	6803      	ldr	r3, [r0, #0]
 80026fa:	68da      	ldr	r2, [r3, #12]
 80026fc:	f422 7290 	bic.w	r2, r2, #288	; 0x120
 8002700:	60da      	str	r2, [r3, #12]
 8002702:	695a      	ldr	r2, [r3, #20]
 8002704:	f022 0201 	bic.w	r2, r2, #1
 8002708:	615a      	str	r2, [r3, #20]
 800270a:	6b02      	ldr	r2, [r0, #48]	; 0x30
 800270c:	2a01      	cmp	r2, #1
 800270e:	bf02      	ittt	eq
 8002710:	68da      	ldreq	r2, [r3, #12]
 8002712:	f022 0210 	biceq.w	r2, r2, #16
 8002716:	60da      	streq	r2, [r3, #12]
 8002718:	2320      	movs	r3, #32
 800271a:	f880 303e 	strb.w	r3, [r0, #62]	; 0x3e
 800271e:	2300      	movs	r3, #0
 8002720:	6303      	str	r3, [r0, #48]	; 0x30
 8002722:	4770      	bx	lr

08002724 <UART_SetConfig>:
 8002724:	b510      	push	{r4, lr}
 8002726:	4604      	mov	r4, r0
 8002728:	6803      	ldr	r3, [r0, #0]
 800272a:	68c1      	ldr	r1, [r0, #12]
 800272c:	691a      	ldr	r2, [r3, #16]
 800272e:	f422 5240 	bic.w	r2, r2, #12288	; 0x3000
 8002732:	430a      	orrs	r2, r1
 8002734:	611a      	str	r2, [r3, #16]
 8002736:	6882      	ldr	r2, [r0, #8]
 8002738:	6900      	ldr	r0, [r0, #16]
 800273a:	68d9      	ldr	r1, [r3, #12]
 800273c:	4302      	orrs	r2, r0
 800273e:	6960      	ldr	r0, [r4, #20]
 8002740:	f421 51b0 	bic.w	r1, r1, #5632	; 0x1600
 8002744:	f021 010c 	bic.w	r1, r1, #12
 8002748:	4302      	orrs	r2, r0
 800274a:	430a      	orrs	r2, r1
 800274c:	60da      	str	r2, [r3, #12]
 800274e:	695a      	ldr	r2, [r3, #20]
 8002750:	69a1      	ldr	r1, [r4, #24]
 8002752:	f422 7240 	bic.w	r2, r2, #768	; 0x300
 8002756:	430a      	orrs	r2, r1
 8002758:	615a      	str	r2, [r3, #20]
 800275a:	4a0e      	ldr	r2, [pc, #56]	; (8002794 <UART_SetConfig+0x70>)
 800275c:	4293      	cmp	r3, r2
 800275e:	d115      	bne.n	800278c <UART_SetConfig+0x68>
 8002760:	f7ff ff42 	bl	80025e8 <HAL_RCC_GetPCLK2Freq>
 8002764:	2319      	movs	r3, #25
 8002766:	4343      	muls	r3, r0
 8002768:	6862      	ldr	r2, [r4, #4]
 800276a:	6820      	ldr	r0, [r4, #0]
 800276c:	0092      	lsls	r2, r2, #2
 800276e:	fbb3 f3f2 	udiv	r3, r3, r2
 8002772:	2264      	movs	r2, #100	; 0x64
 8002774:	fbb3 f1f2 	udiv	r1, r3, r2
 8002778:	fb02 3311 	mls	r3, r2, r1, r3
 800277c:	011b      	lsls	r3, r3, #4
 800277e:	3332      	adds	r3, #50	; 0x32
 8002780:	fbb3 f3f2 	udiv	r3, r3, r2
 8002784:	eb03 1301 	add.w	r3, r3, r1, lsl #4
 8002788:	6083      	str	r3, [r0, #8]
 800278a:	bd10      	pop	{r4, pc}
 800278c:	f7ff ff1c 	bl	80025c8 <HAL_RCC_GetPCLK1Freq>
 8002790:	e7e8      	b.n	8002764 <UART_SetConfig+0x40>
 8002792:	bf00      	nop
 8002794:	40013800 	.word	0x40013800

08002798 <HAL_UART_Init>:
 8002798:	b510      	push	{r4, lr}
 800279a:	4604      	mov	r4, r0
 800279c:	b340      	cbz	r0, 80027f0 <HAL_UART_Init+0x58>
 800279e:	f890 303d 	ldrb.w	r3, [r0, #61]	; 0x3d
 80027a2:	f003 02ff 	and.w	r2, r3, #255	; 0xff
 80027a6:	b91b      	cbnz	r3, 80027b0 <HAL_UART_Init+0x18>
 80027a8:	f880 203c 	strb.w	r2, [r0, #60]	; 0x3c
 80027ac:	f7fe f8f2 	bl	8000994 <HAL_UART_MspInit>
 80027b0:	2324      	movs	r3, #36	; 0x24
 80027b2:	6822      	ldr	r2, [r4, #0]
 80027b4:	f884 303d 	strb.w	r3, [r4, #61]	; 0x3d
 80027b8:	68d3      	ldr	r3, [r2, #12]
 80027ba:	4620      	mov	r0, r4
 80027bc:	f423 5300 	bic.w	r3, r3, #8192	; 0x2000
 80027c0:	60d3      	str	r3, [r2, #12]
 80027c2:	f7ff ffaf 	bl	8002724 <UART_SetConfig>
 80027c6:	6823      	ldr	r3, [r4, #0]
 80027c8:	2000      	movs	r0, #0
 80027ca:	691a      	ldr	r2, [r3, #16]
 80027cc:	f422 4290 	bic.w	r2, r2, #18432	; 0x4800
 80027d0:	611a      	str	r2, [r3, #16]
 80027d2:	695a      	ldr	r2, [r3, #20]
 80027d4:	f022 022a 	bic.w	r2, r2, #42	; 0x2a
 80027d8:	615a      	str	r2, [r3, #20]
 80027da:	68da      	ldr	r2, [r3, #12]
 80027dc:	f442 5200 	orr.w	r2, r2, #8192	; 0x2000
 80027e0:	60da      	str	r2, [r3, #12]
 80027e2:	2320      	movs	r3, #32
 80027e4:	6420      	str	r0, [r4, #64]	; 0x40
 80027e6:	f884 303d 	strb.w	r3, [r4, #61]	; 0x3d
 80027ea:	f884 303e 	strb.w	r3, [r4, #62]	; 0x3e
 80027ee:	bd10      	pop	{r4, pc}
 80027f0:	2001      	movs	r0, #1
 80027f2:	e7fc      	b.n	80027ee <HAL_UART_Init+0x56>

080027f4 <HAL_UART_DeInit>:
 80027f4:	b510      	push	{r4, lr}
 80027f6:	4604      	mov	r4, r0
 80027f8:	b198      	cbz	r0, 8002822 <HAL_UART_DeInit+0x2e>
 80027fa:	2324      	movs	r3, #36	; 0x24
 80027fc:	6802      	ldr	r2, [r0, #0]
 80027fe:	f880 303d 	strb.w	r3, [r0, #61]	; 0x3d
 8002802:	68d3      	ldr	r3, [r2, #12]
 8002804:	f423 5300 	bic.w	r3, r3, #8192	; 0x2000
 8002808:	60d3      	str	r3, [r2, #12]
 800280a:	f7fe f905 	bl	8000a18 <HAL_UART_MspDeInit>
 800280e:	2000      	movs	r0, #0
 8002810:	6420      	str	r0, [r4, #64]	; 0x40
 8002812:	f884 003c 	strb.w	r0, [r4, #60]	; 0x3c
 8002816:	f884 003d 	strb.w	r0, [r4, #61]	; 0x3d
 800281a:	f884 003e 	strb.w	r0, [r4, #62]	; 0x3e
 800281e:	6320      	str	r0, [r4, #48]	; 0x30
 8002820:	bd10      	pop	{r4, pc}
 8002822:	2001      	movs	r0, #1
 8002824:	e7fc      	b.n	8002820 <HAL_UART_DeInit+0x2c>

08002826 <HAL_UART_TxCpltCallback>:
 8002826:	4770      	bx	lr

08002828 <HAL_UART_ErrorCallback>:
 8002828:	4770      	bx	lr

0800282a <UART_DMAAbortOnError>:
 800282a:	b508      	push	{r3, lr}
 800282c:	2300      	movs	r3, #0
 800282e:	6a40      	ldr	r0, [r0, #36]	; 0x24
 8002830:	85c3      	strh	r3, [r0, #46]	; 0x2e
 8002832:	84c3      	strh	r3, [r0, #38]	; 0x26
 8002834:	f7ff fff8 	bl	8002828 <HAL_UART_ErrorCallback>
 8002838:	bd08      	pop	{r3, pc}

0800283a <HAL_UARTEx_RxEventCallback>:
 800283a:	4770      	bx	lr

0800283c <UART_Receive_IT>:
 800283c:	b513      	push	{r0, r1, r4, lr}
 800283e:	f890 303e 	ldrb.w	r3, [r0, #62]	; 0x3e
 8002842:	2b22      	cmp	r3, #34	; 0x22
 8002844:	d149      	bne.n	80028da <UART_Receive_IT+0x9e>
 8002846:	6881      	ldr	r1, [r0, #8]
 8002848:	6a83      	ldr	r3, [r0, #40]	; 0x28
 800284a:	f5b1 5f80 	cmp.w	r1, #4096	; 0x1000
 800284e:	6802      	ldr	r2, [r0, #0]
 8002850:	d133      	bne.n	80028ba <UART_Receive_IT+0x7e>
 8002852:	6901      	ldr	r1, [r0, #16]
 8002854:	2900      	cmp	r1, #0
 8002856:	d133      	bne.n	80028c0 <UART_Receive_IT+0x84>
 8002858:	6852      	ldr	r2, [r2, #4]
 800285a:	f3c2 0208 	ubfx	r2, r2, #0, #9
 800285e:	f823 2b02 	strh.w	r2, [r3], #2
 8002862:	8dc4      	ldrh	r4, [r0, #46]	; 0x2e
 8002864:	6283      	str	r3, [r0, #40]	; 0x28
 8002866:	3c01      	subs	r4, #1
 8002868:	b2a4      	uxth	r4, r4
 800286a:	85c4      	strh	r4, [r0, #46]	; 0x2e
 800286c:	bb1c      	cbnz	r4, 80028b6 <UART_Receive_IT+0x7a>
 800286e:	6803      	ldr	r3, [r0, #0]
 8002870:	68da      	ldr	r2, [r3, #12]
 8002872:	f022 0220 	bic.w	r2, r2, #32
 8002876:	60da      	str	r2, [r3, #12]
 8002878:	68da      	ldr	r2, [r3, #12]
 800287a:	f422 7280 	bic.w	r2, r2, #256	; 0x100
 800287e:	60da      	str	r2, [r3, #12]
 8002880:	695a      	ldr	r2, [r3, #20]
 8002882:	f022 0201 	bic.w	r2, r2, #1
 8002886:	615a      	str	r2, [r3, #20]
 8002888:	2220      	movs	r2, #32
 800288a:	f880 203e 	strb.w	r2, [r0, #62]	; 0x3e
 800288e:	6b02      	ldr	r2, [r0, #48]	; 0x30
 8002890:	2a01      	cmp	r2, #1
 8002892:	d11f      	bne.n	80028d4 <UART_Receive_IT+0x98>
 8002894:	6304      	str	r4, [r0, #48]	; 0x30
 8002896:	68da      	ldr	r2, [r3, #12]
 8002898:	f022 0210 	bic.w	r2, r2, #16
 800289c:	60da      	str	r2, [r3, #12]
 800289e:	681a      	ldr	r2, [r3, #0]
 80028a0:	06d2      	lsls	r2, r2, #27
 80028a2:	d505      	bpl.n	80028b0 <UART_Receive_IT+0x74>
 80028a4:	9401      	str	r4, [sp, #4]
 80028a6:	681a      	ldr	r2, [r3, #0]
 80028a8:	9201      	str	r2, [sp, #4]
 80028aa:	685b      	ldr	r3, [r3, #4]
 80028ac:	9301      	str	r3, [sp, #4]
 80028ae:	9b01      	ldr	r3, [sp, #4]
 80028b0:	8d81      	ldrh	r1, [r0, #44]	; 0x2c
 80028b2:	f7ff ffc2 	bl	800283a <HAL_UARTEx_RxEventCallback>
 80028b6:	2000      	movs	r0, #0
 80028b8:	e010      	b.n	80028dc <UART_Receive_IT+0xa0>
 80028ba:	b939      	cbnz	r1, 80028cc <UART_Receive_IT+0x90>
 80028bc:	6901      	ldr	r1, [r0, #16]
 80028be:	b929      	cbnz	r1, 80028cc <UART_Receive_IT+0x90>
 80028c0:	6852      	ldr	r2, [r2, #4]
 80028c2:	b2d2      	uxtb	r2, r2
 80028c4:	701a      	strb	r2, [r3, #0]
 80028c6:	6a83      	ldr	r3, [r0, #40]	; 0x28
 80028c8:	3301      	adds	r3, #1
 80028ca:	e7ca      	b.n	8002862 <UART_Receive_IT+0x26>
 80028cc:	6852      	ldr	r2, [r2, #4]
 80028ce:	f002 027f 	and.w	r2, r2, #127	; 0x7f
 80028d2:	e7f7      	b.n	80028c4 <UART_Receive_IT+0x88>
 80028d4:	f7fe f828 	bl	8000928 <HAL_UART_RxCpltCallback>
 80028d8:	e7ed      	b.n	80028b6 <UART_Receive_IT+0x7a>
 80028da:	2002      	movs	r0, #2
 80028dc:	b002      	add	sp, #8
 80028de:	bd10      	pop	{r4, pc}

080028e0 <HAL_UART_IRQHandler>:
 80028e0:	6803      	ldr	r3, [r0, #0]
 80028e2:	b537      	push	{r0, r1, r2, r4, r5, lr}
 80028e4:	681a      	ldr	r2, [r3, #0]
 80028e6:	4604      	mov	r4, r0
 80028e8:	f012 0f0f 	tst.w	r2, #15
 80028ec:	68d9      	ldr	r1, [r3, #12]
 80028ee:	695d      	ldr	r5, [r3, #20]
 80028f0:	d108      	bne.n	8002904 <HAL_UART_IRQHandler+0x24>
 80028f2:	0695      	lsls	r5, r2, #26
 80028f4:	d55f      	bpl.n	80029b6 <HAL_UART_IRQHandler+0xd6>
 80028f6:	068d      	lsls	r5, r1, #26
 80028f8:	d55d      	bpl.n	80029b6 <HAL_UART_IRQHandler+0xd6>
 80028fa:	b003      	add	sp, #12
 80028fc:	e8bd 4030 	ldmia.w	sp!, {r4, r5, lr}
 8002900:	f7ff bf9c 	b.w	800283c <UART_Receive_IT>
 8002904:	f005 0001 	and.w	r0, r5, #1
 8002908:	f401 7590 	and.w	r5, r1, #288	; 0x120
 800290c:	4305      	orrs	r5, r0
 800290e:	d052      	beq.n	80029b6 <HAL_UART_IRQHandler+0xd6>
 8002910:	07d5      	lsls	r5, r2, #31
 8002912:	d505      	bpl.n	8002920 <HAL_UART_IRQHandler+0x40>
 8002914:	05cb      	lsls	r3, r1, #23
 8002916:	bf42      	ittt	mi
 8002918:	6c23      	ldrmi	r3, [r4, #64]	; 0x40
 800291a:	f043 0301 	orrmi.w	r3, r3, #1
 800291e:	6423      	strmi	r3, [r4, #64]	; 0x40
 8002920:	0755      	lsls	r5, r2, #29
 8002922:	d504      	bpl.n	800292e <HAL_UART_IRQHandler+0x4e>
 8002924:	b118      	cbz	r0, 800292e <HAL_UART_IRQHandler+0x4e>
 8002926:	6c23      	ldr	r3, [r4, #64]	; 0x40
 8002928:	f043 0302 	orr.w	r3, r3, #2
 800292c:	6423      	str	r3, [r4, #64]	; 0x40
 800292e:	0793      	lsls	r3, r2, #30
 8002930:	d504      	bpl.n	800293c <HAL_UART_IRQHandler+0x5c>
 8002932:	b118      	cbz	r0, 800293c <HAL_UART_IRQHandler+0x5c>
 8002934:	6c23      	ldr	r3, [r4, #64]	; 0x40
 8002936:	f043 0304 	orr.w	r3, r3, #4
 800293a:	6423      	str	r3, [r4, #64]	; 0x40
 800293c:	0715      	lsls	r5, r2, #28
 800293e:	d507      	bpl.n	8002950 <HAL_UART_IRQHandler+0x70>
 8002940:	f001 0320 	and.w	r3, r1, #32
 8002944:	4303      	orrs	r3, r0
 8002946:	bf1e      	ittt	ne
 8002948:	6c23      	ldrne	r3, [r4, #64]	; 0x40
 800294a:	f043 0308 	orrne.w	r3, r3, #8
 800294e:	6423      	strne	r3, [r4, #64]	; 0x40
 8002950:	6c23      	ldr	r3, [r4, #64]	; 0x40
 8002952:	b353      	cbz	r3, 80029aa <HAL_UART_IRQHandler+0xca>
 8002954:	0692      	lsls	r2, r2, #26
 8002956:	d504      	bpl.n	8002962 <HAL_UART_IRQHandler+0x82>
 8002958:	068b      	lsls	r3, r1, #26
 800295a:	d502      	bpl.n	8002962 <HAL_UART_IRQHandler+0x82>
 800295c:	4620      	mov	r0, r4
 800295e:	f7ff ff6d 	bl	800283c <UART_Receive_IT>
 8002962:	6823      	ldr	r3, [r4, #0]
 8002964:	4620      	mov	r0, r4
 8002966:	695b      	ldr	r3, [r3, #20]
 8002968:	6c25      	ldr	r5, [r4, #64]	; 0x40
 800296a:	f003 0340 	and.w	r3, r3, #64	; 0x40
 800296e:	f005 0508 	and.w	r5, r5, #8
 8002972:	431d      	orrs	r5, r3
 8002974:	d01b      	beq.n	80029ae <HAL_UART_IRQHandler+0xce>
 8002976:	f7ff febf 	bl	80026f8 <UART_EndRxTransfer>
 800297a:	6823      	ldr	r3, [r4, #0]
 800297c:	695a      	ldr	r2, [r3, #20]
 800297e:	0655      	lsls	r5, r2, #25
 8002980:	d510      	bpl.n	80029a4 <HAL_UART_IRQHandler+0xc4>
 8002982:	695a      	ldr	r2, [r3, #20]
 8002984:	6ba0      	ldr	r0, [r4, #56]	; 0x38
 8002986:	f022 0240 	bic.w	r2, r2, #64	; 0x40
 800298a:	615a      	str	r2, [r3, #20]
 800298c:	b150      	cbz	r0, 80029a4 <HAL_UART_IRQHandler+0xc4>
 800298e:	4b53      	ldr	r3, [pc, #332]	; (8002adc <HAL_UART_IRQHandler+0x1fc>)
 8002990:	6343      	str	r3, [r0, #52]	; 0x34
 8002992:	f7fe f99d 	bl	8000cd0 <HAL_DMA_Abort_IT>
 8002996:	b140      	cbz	r0, 80029aa <HAL_UART_IRQHandler+0xca>
 8002998:	6ba0      	ldr	r0, [r4, #56]	; 0x38
 800299a:	6b43      	ldr	r3, [r0, #52]	; 0x34
 800299c:	b003      	add	sp, #12
 800299e:	e8bd 4030 	ldmia.w	sp!, {r4, r5, lr}
 80029a2:	4718      	bx	r3
 80029a4:	4620      	mov	r0, r4
 80029a6:	f7ff ff3f 	bl	8002828 <HAL_UART_ErrorCallback>
 80029aa:	b003      	add	sp, #12
 80029ac:	bd30      	pop	{r4, r5, pc}
 80029ae:	f7ff ff3b 	bl	8002828 <HAL_UART_ErrorCallback>
 80029b2:	6425      	str	r5, [r4, #64]	; 0x40
 80029b4:	e7f9      	b.n	80029aa <HAL_UART_IRQHandler+0xca>
 80029b6:	6b20      	ldr	r0, [r4, #48]	; 0x30
 80029b8:	2801      	cmp	r0, #1
 80029ba:	d155      	bne.n	8002a68 <HAL_UART_IRQHandler+0x188>
 80029bc:	06d0      	lsls	r0, r2, #27
 80029be:	d553      	bpl.n	8002a68 <HAL_UART_IRQHandler+0x188>
 80029c0:	06cd      	lsls	r5, r1, #27
 80029c2:	d551      	bpl.n	8002a68 <HAL_UART_IRQHandler+0x188>
 80029c4:	2100      	movs	r1, #0
 80029c6:	9101      	str	r1, [sp, #4]
 80029c8:	681a      	ldr	r2, [r3, #0]
 80029ca:	9201      	str	r2, [sp, #4]
 80029cc:	685a      	ldr	r2, [r3, #4]
 80029ce:	9201      	str	r2, [sp, #4]
 80029d0:	9a01      	ldr	r2, [sp, #4]
 80029d2:	695a      	ldr	r2, [r3, #20]
 80029d4:	f012 0240 	ands.w	r2, r2, #64	; 0x40
 80029d8:	d02a      	beq.n	8002a30 <HAL_UART_IRQHandler+0x150>
 80029da:	6ba0      	ldr	r0, [r4, #56]	; 0x38
 80029dc:	6802      	ldr	r2, [r0, #0]
 80029de:	6852      	ldr	r2, [r2, #4]
 80029e0:	b292      	uxth	r2, r2
 80029e2:	2a00      	cmp	r2, #0
 80029e4:	d0e1      	beq.n	80029aa <HAL_UART_IRQHandler+0xca>
 80029e6:	8da5      	ldrh	r5, [r4, #44]	; 0x2c
 80029e8:	4295      	cmp	r5, r2
 80029ea:	d9de      	bls.n	80029aa <HAL_UART_IRQHandler+0xca>
 80029ec:	85e2      	strh	r2, [r4, #46]	; 0x2e
 80029ee:	6982      	ldr	r2, [r0, #24]
 80029f0:	2a20      	cmp	r2, #32
 80029f2:	d015      	beq.n	8002a20 <HAL_UART_IRQHandler+0x140>
 80029f4:	68da      	ldr	r2, [r3, #12]
 80029f6:	f422 7280 	bic.w	r2, r2, #256	; 0x100
 80029fa:	60da      	str	r2, [r3, #12]
 80029fc:	695a      	ldr	r2, [r3, #20]
 80029fe:	f022 0201 	bic.w	r2, r2, #1
 8002a02:	615a      	str	r2, [r3, #20]
 8002a04:	695a      	ldr	r2, [r3, #20]
 8002a06:	f022 0240 	bic.w	r2, r2, #64	; 0x40
 8002a0a:	615a      	str	r2, [r3, #20]
 8002a0c:	2220      	movs	r2, #32
 8002a0e:	f884 203e 	strb.w	r2, [r4, #62]	; 0x3e
 8002a12:	6321      	str	r1, [r4, #48]	; 0x30
 8002a14:	68da      	ldr	r2, [r3, #12]
 8002a16:	f022 0210 	bic.w	r2, r2, #16
 8002a1a:	60da      	str	r2, [r3, #12]
 8002a1c:	f7fe f93a 	bl	8000c94 <HAL_DMA_Abort>
 8002a20:	8de3      	ldrh	r3, [r4, #46]	; 0x2e
 8002a22:	8da1      	ldrh	r1, [r4, #44]	; 0x2c
 8002a24:	1ac9      	subs	r1, r1, r3
 8002a26:	b289      	uxth	r1, r1
 8002a28:	4620      	mov	r0, r4
 8002a2a:	f7ff ff06 	bl	800283a <HAL_UARTEx_RxEventCallback>
 8002a2e:	e7bc      	b.n	80029aa <HAL_UART_IRQHandler+0xca>
 8002a30:	8de1      	ldrh	r1, [r4, #46]	; 0x2e
 8002a32:	b288      	uxth	r0, r1
 8002a34:	8de1      	ldrh	r1, [r4, #46]	; 0x2e
 8002a36:	b289      	uxth	r1, r1
 8002a38:	2900      	cmp	r1, #0
 8002a3a:	d0b6      	beq.n	80029aa <HAL_UART_IRQHandler+0xca>
 8002a3c:	8da1      	ldrh	r1, [r4, #44]	; 0x2c
 8002a3e:	1a09      	subs	r1, r1, r0
 8002a40:	b289      	uxth	r1, r1
 8002a42:	2900      	cmp	r1, #0
 8002a44:	d0b1      	beq.n	80029aa <HAL_UART_IRQHandler+0xca>
 8002a46:	68d8      	ldr	r0, [r3, #12]
 8002a48:	f420 7090 	bic.w	r0, r0, #288	; 0x120
 8002a4c:	60d8      	str	r0, [r3, #12]
 8002a4e:	6958      	ldr	r0, [r3, #20]
 8002a50:	f020 0001 	bic.w	r0, r0, #1
 8002a54:	6158      	str	r0, [r3, #20]
 8002a56:	2020      	movs	r0, #32
 8002a58:	f884 003e 	strb.w	r0, [r4, #62]	; 0x3e
 8002a5c:	6322      	str	r2, [r4, #48]	; 0x30
 8002a5e:	68da      	ldr	r2, [r3, #12]
 8002a60:	f022 0210 	bic.w	r2, r2, #16
 8002a64:	60da      	str	r2, [r3, #12]
 8002a66:	e7df      	b.n	8002a28 <HAL_UART_IRQHandler+0x148>
 8002a68:	0610      	lsls	r0, r2, #24
 8002a6a:	d526      	bpl.n	8002aba <HAL_UART_IRQHandler+0x1da>
 8002a6c:	060d      	lsls	r5, r1, #24
 8002a6e:	d524      	bpl.n	8002aba <HAL_UART_IRQHandler+0x1da>
 8002a70:	f894 203d 	ldrb.w	r2, [r4, #61]	; 0x3d
 8002a74:	2a21      	cmp	r2, #33	; 0x21
 8002a76:	d198      	bne.n	80029aa <HAL_UART_IRQHandler+0xca>
 8002a78:	68a1      	ldr	r1, [r4, #8]
 8002a7a:	6a22      	ldr	r2, [r4, #32]
 8002a7c:	f5b1 5f80 	cmp.w	r1, #4096	; 0x1000
 8002a80:	d116      	bne.n	8002ab0 <HAL_UART_IRQHandler+0x1d0>
 8002a82:	6921      	ldr	r1, [r4, #16]
 8002a84:	b9a1      	cbnz	r1, 8002ab0 <HAL_UART_IRQHandler+0x1d0>
 8002a86:	f832 1b02 	ldrh.w	r1, [r2], #2
 8002a8a:	f3c1 0108 	ubfx	r1, r1, #0, #9
 8002a8e:	6059      	str	r1, [r3, #4]
 8002a90:	6222      	str	r2, [r4, #32]
 8002a92:	8ce2      	ldrh	r2, [r4, #38]	; 0x26
 8002a94:	3a01      	subs	r2, #1
 8002a96:	b292      	uxth	r2, r2
 8002a98:	84e2      	strh	r2, [r4, #38]	; 0x26
 8002a9a:	2a00      	cmp	r2, #0
 8002a9c:	d185      	bne.n	80029aa <HAL_UART_IRQHandler+0xca>
 8002a9e:	68da      	ldr	r2, [r3, #12]
 8002aa0:	f022 0280 	bic.w	r2, r2, #128	; 0x80
 8002aa4:	60da      	str	r2, [r3, #12]
 8002aa6:	68da      	ldr	r2, [r3, #12]
 8002aa8:	f042 0240 	orr.w	r2, r2, #64	; 0x40
 8002aac:	60da      	str	r2, [r3, #12]
 8002aae:	e77c      	b.n	80029aa <HAL_UART_IRQHandler+0xca>
 8002ab0:	1c51      	adds	r1, r2, #1
 8002ab2:	6221      	str	r1, [r4, #32]
 8002ab4:	7812      	ldrb	r2, [r2, #0]
 8002ab6:	605a      	str	r2, [r3, #4]
 8002ab8:	e7eb      	b.n	8002a92 <HAL_UART_IRQHandler+0x1b2>
 8002aba:	0650      	lsls	r0, r2, #25
 8002abc:	f57f af75 	bpl.w	80029aa <HAL_UART_IRQHandler+0xca>
 8002ac0:	064a      	lsls	r2, r1, #25
 8002ac2:	f57f af72 	bpl.w	80029aa <HAL_UART_IRQHandler+0xca>
 8002ac6:	68da      	ldr	r2, [r3, #12]
 8002ac8:	4620      	mov	r0, r4
 8002aca:	f022 0240 	bic.w	r2, r2, #64	; 0x40
 8002ace:	60da      	str	r2, [r3, #12]
 8002ad0:	2320      	movs	r3, #32
 8002ad2:	f884 303d 	strb.w	r3, [r4, #61]	; 0x3d
 8002ad6:	f7ff fea6 	bl	8002826 <HAL_UART_TxCpltCallback>
 8002ada:	e766      	b.n	80029aa <HAL_UART_IRQHandler+0xca>
 8002adc:	0800282b 	.word	0x0800282b

08002ae0 <UART_Start_Receive_IT>:
 8002ae0:	85c2      	strh	r2, [r0, #46]	; 0x2e
 8002ae2:	8582      	strh	r2, [r0, #44]	; 0x2c
 8002ae4:	6281      	str	r1, [r0, #40]	; 0x28
 8002ae6:	4603      	mov	r3, r0
 8002ae8:	2222      	movs	r2, #34	; 0x22
 8002aea:	2000      	movs	r0, #0
 8002aec:	6418      	str	r0, [r3, #64]	; 0x40
 8002aee:	f883 003c 	strb.w	r0, [r3, #60]	; 0x3c
 8002af2:	f883 203e 	strb.w	r2, [r3, #62]	; 0x3e
 8002af6:	681b      	ldr	r3, [r3, #0]
 8002af8:	68da      	ldr	r2, [r3, #12]
 8002afa:	f442 7280 	orr.w	r2, r2, #256	; 0x100
 8002afe:	60da      	str	r2, [r3, #12]
 8002b00:	695a      	ldr	r2, [r3, #20]
 8002b02:	f042 0201 	orr.w	r2, r2, #1
 8002b06:	615a      	str	r2, [r3, #20]
 8002b08:	68da      	ldr	r2, [r3, #12]
 8002b0a:	f042 0220 	orr.w	r2, r2, #32
 8002b0e:	60da      	str	r2, [r3, #12]
 8002b10:	4770      	bx	lr

08002b12 <HAL_UART_Receive_IT>:
 8002b12:	b470      	push	{r4, r5, r6}
 8002b14:	f890 603e 	ldrb.w	r6, [r0, #62]	; 0x3e
 8002b18:	2e20      	cmp	r6, #32
 8002b1a:	d110      	bne.n	8002b3e <HAL_UART_Receive_IT+0x2c>
 8002b1c:	b161      	cbz	r1, 8002b38 <HAL_UART_Receive_IT+0x26>
 8002b1e:	b15a      	cbz	r2, 8002b38 <HAL_UART_Receive_IT+0x26>
 8002b20:	f890 403c 	ldrb.w	r4, [r0, #60]	; 0x3c
 8002b24:	2c01      	cmp	r4, #1
 8002b26:	d00a      	beq.n	8002b3e <HAL_UART_Receive_IT+0x2c>
 8002b28:	2401      	movs	r4, #1
 8002b2a:	f880 403c 	strb.w	r4, [r0, #60]	; 0x3c
 8002b2e:	2400      	movs	r4, #0
 8002b30:	6304      	str	r4, [r0, #48]	; 0x30
 8002b32:	bc70      	pop	{r4, r5, r6}
 8002b34:	f7ff bfd4 	b.w	8002ae0 <UART_Start_Receive_IT>
 8002b38:	2001      	movs	r0, #1
 8002b3a:	bc70      	pop	{r4, r5, r6}
 8002b3c:	4770      	bx	lr
 8002b3e:	2002      	movs	r0, #2
 8002b40:	e7fb      	b.n	8002b3a <HAL_UART_Receive_IT+0x28>

08002b42 <USB_CoreInit>:
 8002b42:	b084      	sub	sp, #16
 8002b44:	a801      	add	r0, sp, #4
 8002b46:	e880 000e 	stmia.w	r0, {r1, r2, r3}
 8002b4a:	b004      	add	sp, #16
 8002b4c:	2000      	movs	r0, #0
 8002b4e:	4770      	bx	lr

08002b50 <USB_EnableGlobalInt>:
 8002b50:	4603      	mov	r3, r0
 8002b52:	f44f 423f 	mov.w	r2, #48896	; 0xbf00
 8002b56:	2000      	movs	r0, #0
 8002b58:	f8a3 0044 	strh.w	r0, [r3, #68]	; 0x44
 8002b5c:	f8a3 2040 	strh.w	r2, [r3, #64]	; 0x40
 8002b60:	4770      	bx	lr

08002b62 <USB_DisableGlobalInt>:
 8002b62:	f8b0 3040 	ldrh.w	r3, [r0, #64]	; 0x40
 8002b66:	f423 537c 	bic.w	r3, r3, #16128	; 0x3f00
 8002b6a:	045b      	lsls	r3, r3, #17
 8002b6c:	0c5b      	lsrs	r3, r3, #17
 8002b6e:	f8a0 3040 	strh.w	r3, [r0, #64]	; 0x40
 8002b72:	2000      	movs	r0, #0
 8002b74:	4770      	bx	lr

08002b76 <USB_SetCurrentMode>:
 8002b76:	2000      	movs	r0, #0
 8002b78:	4770      	bx	lr

08002b7a <USB_DevInit>:
 8002b7a:	b084      	sub	sp, #16
 8002b7c:	b510      	push	{r4, lr}
 8002b7e:	4604      	mov	r4, r0
 8002b80:	a803      	add	r0, sp, #12
 8002b82:	e880 000e 	stmia.w	r0, {r1, r2, r3}
 8002b86:	2000      	movs	r0, #0
 8002b88:	2301      	movs	r3, #1
 8002b8a:	f8a4 3040 	strh.w	r3, [r4, #64]	; 0x40
 8002b8e:	f8a4 0040 	strh.w	r0, [r4, #64]	; 0x40
 8002b92:	f8a4 0044 	strh.w	r0, [r4, #68]	; 0x44
 8002b96:	f8a4 0050 	strh.w	r0, [r4, #80]	; 0x50
 8002b9a:	e8bd 4010 	ldmia.w	sp!, {r4, lr}
 8002b9e:	b004      	add	sp, #16
 8002ba0:	4770      	bx	lr
	...

08002ba4 <USB_ActivateEndpoint>:
 8002ba4:	b5f0      	push	{r4, r5, r6, r7, lr}
 8002ba6:	780d      	ldrb	r5, [r1, #0]
 8002ba8:	4603      	mov	r3, r0
 8002baa:	f830 2025 	ldrh.w	r2, [r0, r5, lsl #2]
 8002bae:	78c8      	ldrb	r0, [r1, #3]
 8002bb0:	f422 42ec 	bic.w	r2, r2, #30208	; 0x7600
 8002bb4:	f022 0270 	bic.w	r2, r2, #112	; 0x70
 8002bb8:	0412      	lsls	r2, r2, #16
 8002bba:	0c12      	lsrs	r2, r2, #16
 8002bbc:	2803      	cmp	r0, #3
 8002bbe:	d84f      	bhi.n	8002c60 <USB_ActivateEndpoint+0xbc>
 8002bc0:	e8df f000 	tbb	[pc, r0]
 8002bc4:	47494b02 	.word	0x47494b02
 8002bc8:	f442 7200 	orr.w	r2, r2, #512	; 0x200
 8002bcc:	f248 0480 	movw	r4, #32896	; 0x8080
 8002bd0:	4322      	orrs	r2, r4
 8002bd2:	f823 2025 	strh.w	r2, [r3, r5, lsl #2]
 8002bd6:	780e      	ldrb	r6, [r1, #0]
 8002bd8:	4d9b      	ldr	r5, [pc, #620]	; (8002e48 <USB_ActivateEndpoint+0x2a4>)
 8002bda:	f833 2026 	ldrh.w	r2, [r3, r6, lsl #2]
 8002bde:	b292      	uxth	r2, r2
 8002be0:	402a      	ands	r2, r5
 8002be2:	4332      	orrs	r2, r6
 8002be4:	4322      	orrs	r2, r4
 8002be6:	f823 2026 	strh.w	r2, [r3, r6, lsl #2]
 8002bea:	7b0c      	ldrb	r4, [r1, #12]
 8002bec:	780a      	ldrb	r2, [r1, #0]
 8002bee:	2c00      	cmp	r4, #0
 8002bf0:	f040 8089 	bne.w	8002d06 <USB_ActivateEndpoint+0x162>
 8002bf4:	88cc      	ldrh	r4, [r1, #6]
 8002bf6:	784e      	ldrb	r6, [r1, #1]
 8002bf8:	0864      	lsrs	r4, r4, #1
 8002bfa:	0064      	lsls	r4, r4, #1
 8002bfc:	eb03 1202 	add.w	r2, r3, r2, lsl #4
 8002c00:	b386      	cbz	r6, 8002c64 <USB_ActivateEndpoint+0xc0>
 8002c02:	f8b3 6050 	ldrh.w	r6, [r3, #80]	; 0x50
 8002c06:	b2b6      	uxth	r6, r6
 8002c08:	4432      	add	r2, r6
 8002c0a:	f8a2 4400 	strh.w	r4, [r2, #1024]	; 0x400
 8002c0e:	780c      	ldrb	r4, [r1, #0]
 8002c10:	f833 2024 	ldrh.w	r2, [r3, r4, lsl #2]
 8002c14:	0652      	lsls	r2, r2, #25
 8002c16:	d509      	bpl.n	8002c2c <USB_ActivateEndpoint+0x88>
 8002c18:	f833 2024 	ldrh.w	r2, [r3, r4, lsl #2]
 8002c1c:	b292      	uxth	r2, r2
 8002c1e:	402a      	ands	r2, r5
 8002c20:	f442 4200 	orr.w	r2, r2, #32768	; 0x8000
 8002c24:	f042 02c0 	orr.w	r2, r2, #192	; 0xc0
 8002c28:	f823 2024 	strh.w	r2, [r3, r4, lsl #2]
 8002c2c:	78ca      	ldrb	r2, [r1, #3]
 8002c2e:	780c      	ldrb	r4, [r1, #0]
 8002c30:	2a01      	cmp	r2, #1
 8002c32:	f833 2024 	ldrh.w	r2, [r3, r4, lsl #2]
 8002c36:	4985      	ldr	r1, [pc, #532]	; (8002e4c <USB_ActivateEndpoint+0x2a8>)
 8002c38:	b292      	uxth	r2, r2
 8002c3a:	ea02 0201 	and.w	r2, r2, r1
 8002c3e:	bf18      	it	ne
 8002c40:	f082 0220 	eorne.w	r2, r2, #32
 8002c44:	f442 4200 	orr.w	r2, r2, #32768	; 0x8000
 8002c48:	f042 0280 	orr.w	r2, r2, #128	; 0x80
 8002c4c:	f823 2024 	strh.w	r2, [r3, r4, lsl #2]
 8002c50:	bdf0      	pop	{r4, r5, r6, r7, pc}
 8002c52:	f442 62c0 	orr.w	r2, r2, #1536	; 0x600
 8002c56:	2000      	movs	r0, #0
 8002c58:	e7b8      	b.n	8002bcc <USB_ActivateEndpoint+0x28>
 8002c5a:	f442 6280 	orr.w	r2, r2, #1024	; 0x400
 8002c5e:	e7fa      	b.n	8002c56 <USB_ActivateEndpoint+0xb2>
 8002c60:	2001      	movs	r0, #1
 8002c62:	e7b3      	b.n	8002bcc <USB_ActivateEndpoint+0x28>
 8002c64:	f8b3 5050 	ldrh.w	r5, [r3, #80]	; 0x50
 8002c68:	690e      	ldr	r6, [r1, #16]
 8002c6a:	b2ad      	uxth	r5, r5
 8002c6c:	442a      	add	r2, r5
 8002c6e:	f8a2 4408 	strh.w	r4, [r2, #1032]	; 0x408
 8002c72:	780a      	ldrb	r2, [r1, #0]
 8002c74:	f8b3 4050 	ldrh.w	r4, [r3, #80]	; 0x50
 8002c78:	eb03 1202 	add.w	r2, r3, r2, lsl #4
 8002c7c:	b2a4      	uxth	r4, r4
 8002c7e:	f202 420c 	addw	r2, r2, #1036	; 0x40c
 8002c82:	bb7e      	cbnz	r6, 8002ce4 <USB_ActivateEndpoint+0x140>
 8002c84:	5b15      	ldrh	r5, [r2, r4]
 8002c86:	f425 45f8 	bic.w	r5, r5, #31744	; 0x7c00
 8002c8a:	042d      	lsls	r5, r5, #16
 8002c8c:	0c2d      	lsrs	r5, r5, #16
 8002c8e:	5315      	strh	r5, [r2, r4]
 8002c90:	5b15      	ldrh	r5, [r2, r4]
 8002c92:	ea6f 4545 	mvn.w	r5, r5, lsl #17
 8002c96:	ea6f 4555 	mvn.w	r5, r5, lsr #17
 8002c9a:	b2ad      	uxth	r5, r5
 8002c9c:	5315      	strh	r5, [r2, r4]
 8002c9e:	780c      	ldrb	r4, [r1, #0]
 8002ca0:	f833 2024 	ldrh.w	r2, [r3, r4, lsl #2]
 8002ca4:	0455      	lsls	r5, r2, #17
 8002ca6:	d50d      	bpl.n	8002cc4 <USB_ActivateEndpoint+0x120>
 8002ca8:	f833 2024 	ldrh.w	r2, [r3, r4, lsl #2]
 8002cac:	f422 42e0 	bic.w	r2, r2, #28672	; 0x7000
 8002cb0:	f022 0270 	bic.w	r2, r2, #112	; 0x70
 8002cb4:	0412      	lsls	r2, r2, #16
 8002cb6:	0c12      	lsrs	r2, r2, #16
 8002cb8:	f442 4240 	orr.w	r2, r2, #49152	; 0xc000
 8002cbc:	f042 0280 	orr.w	r2, r2, #128	; 0x80
 8002cc0:	f823 2024 	strh.w	r2, [r3, r4, lsl #2]
 8002cc4:	7809      	ldrb	r1, [r1, #0]
 8002cc6:	f833 2021 	ldrh.w	r2, [r3, r1, lsl #2]
 8002cca:	f422 4280 	bic.w	r2, r2, #16384	; 0x4000
 8002cce:	f022 0270 	bic.w	r2, r2, #112	; 0x70
 8002cd2:	0412      	lsls	r2, r2, #16
 8002cd4:	0c12      	lsrs	r2, r2, #16
 8002cd6:	f482 5240 	eor.w	r2, r2, #12288	; 0x3000
 8002cda:	f442 4200 	orr.w	r2, r2, #32768	; 0x8000
 8002cde:	f042 0280 	orr.w	r2, r2, #128	; 0x80
 8002ce2:	e071      	b.n	8002dc8 <USB_ActivateEndpoint+0x224>
 8002ce4:	2e3e      	cmp	r6, #62	; 0x3e
 8002ce6:	d805      	bhi.n	8002cf4 <USB_ActivateEndpoint+0x150>
 8002ce8:	0875      	lsrs	r5, r6, #1
 8002cea:	07f7      	lsls	r7, r6, #31
 8002cec:	bf48      	it	mi
 8002cee:	3501      	addmi	r5, #1
 8002cf0:	02ad      	lsls	r5, r5, #10
 8002cf2:	e7d2      	b.n	8002c9a <USB_ActivateEndpoint+0xf6>
 8002cf4:	0977      	lsrs	r7, r6, #5
 8002cf6:	4d56      	ldr	r5, [pc, #344]	; (8002e50 <USB_ActivateEndpoint+0x2ac>)
 8002cf8:	06f6      	lsls	r6, r6, #27
 8002cfa:	bf08      	it	eq
 8002cfc:	f107 37ff 	addeq.w	r7, r7, #4294967295
 8002d00:	ea45 2587 	orr.w	r5, r5, r7, lsl #10
 8002d04:	e7c9      	b.n	8002c9a <USB_ActivateEndpoint+0xf6>
 8002d06:	f833 4022 	ldrh.w	r4, [r3, r2, lsl #2]
 8002d0a:	b2a4      	uxth	r4, r4
 8002d0c:	402c      	ands	r4, r5
 8002d0e:	f444 4401 	orr.w	r4, r4, #33024	; 0x8100
 8002d12:	f044 0480 	orr.w	r4, r4, #128	; 0x80
 8002d16:	f823 4022 	strh.w	r4, [r3, r2, lsl #2]
 8002d1a:	780a      	ldrb	r2, [r1, #0]
 8002d1c:	890c      	ldrh	r4, [r1, #8]
 8002d1e:	f8b3 6050 	ldrh.w	r6, [r3, #80]	; 0x50
 8002d22:	eb03 1202 	add.w	r2, r3, r2, lsl #4
 8002d26:	0864      	lsrs	r4, r4, #1
 8002d28:	b2b6      	uxth	r6, r6
 8002d2a:	f502 6280 	add.w	r2, r2, #1024	; 0x400
 8002d2e:	0064      	lsls	r4, r4, #1
 8002d30:	5394      	strh	r4, [r2, r6]
 8002d32:	780a      	ldrb	r2, [r1, #0]
 8002d34:	894c      	ldrh	r4, [r1, #10]
 8002d36:	f8b3 6050 	ldrh.w	r6, [r3, #80]	; 0x50
 8002d3a:	eb03 1202 	add.w	r2, r3, r2, lsl #4
 8002d3e:	0864      	lsrs	r4, r4, #1
 8002d40:	f502 6281 	add.w	r2, r2, #1032	; 0x408
 8002d44:	0064      	lsls	r4, r4, #1
 8002d46:	b2b6      	uxth	r6, r6
 8002d48:	5394      	strh	r4, [r2, r6]
 8002d4a:	784a      	ldrb	r2, [r1, #1]
 8002d4c:	780c      	ldrb	r4, [r1, #0]
 8002d4e:	2a00      	cmp	r2, #0
 8002d50:	d13d      	bne.n	8002dce <USB_ActivateEndpoint+0x22a>
 8002d52:	f833 2024 	ldrh.w	r2, [r3, r4, lsl #2]
 8002d56:	0452      	lsls	r2, r2, #17
 8002d58:	d509      	bpl.n	8002d6e <USB_ActivateEndpoint+0x1ca>
 8002d5a:	f833 2024 	ldrh.w	r2, [r3, r4, lsl #2]
 8002d5e:	b292      	uxth	r2, r2
 8002d60:	402a      	ands	r2, r5
 8002d62:	f442 4240 	orr.w	r2, r2, #49152	; 0xc000
 8002d66:	f042 0280 	orr.w	r2, r2, #128	; 0x80
 8002d6a:	f823 2024 	strh.w	r2, [r3, r4, lsl #2]
 8002d6e:	780c      	ldrb	r4, [r1, #0]
 8002d70:	f833 2024 	ldrh.w	r2, [r3, r4, lsl #2]
 8002d74:	0657      	lsls	r7, r2, #25
 8002d76:	d50d      	bpl.n	8002d94 <USB_ActivateEndpoint+0x1f0>
 8002d78:	f833 2024 	ldrh.w	r2, [r3, r4, lsl #2]
 8002d7c:	f422 42e0 	bic.w	r2, r2, #28672	; 0x7000
 8002d80:	f022 0270 	bic.w	r2, r2, #112	; 0x70
 8002d84:	0412      	lsls	r2, r2, #16
 8002d86:	0c12      	lsrs	r2, r2, #16
 8002d88:	f442 4200 	orr.w	r2, r2, #32768	; 0x8000
 8002d8c:	f042 02c0 	orr.w	r2, r2, #192	; 0xc0
 8002d90:	f823 2024 	strh.w	r2, [r3, r4, lsl #2]
 8002d94:	f248 0480 	movw	r4, #32896	; 0x8080
 8002d98:	780d      	ldrb	r5, [r1, #0]
 8002d9a:	f833 2025 	ldrh.w	r2, [r3, r5, lsl #2]
 8002d9e:	f422 4280 	bic.w	r2, r2, #16384	; 0x4000
 8002da2:	f022 0270 	bic.w	r2, r2, #112	; 0x70
 8002da6:	0412      	lsls	r2, r2, #16
 8002da8:	0c12      	lsrs	r2, r2, #16
 8002daa:	f482 5240 	eor.w	r2, r2, #12288	; 0x3000
 8002dae:	4322      	orrs	r2, r4
 8002db0:	f823 2025 	strh.w	r2, [r3, r5, lsl #2]
 8002db4:	7809      	ldrb	r1, [r1, #0]
 8002db6:	f833 2021 	ldrh.w	r2, [r3, r1, lsl #2]
 8002dba:	f422 42e0 	bic.w	r2, r2, #28672	; 0x7000
 8002dbe:	f022 0240 	bic.w	r2, r2, #64	; 0x40
 8002dc2:	0412      	lsls	r2, r2, #16
 8002dc4:	0c12      	lsrs	r2, r2, #16
 8002dc6:	4322      	orrs	r2, r4
 8002dc8:	f823 2021 	strh.w	r2, [r3, r1, lsl #2]
 8002dcc:	e740      	b.n	8002c50 <USB_ActivateEndpoint+0xac>
 8002dce:	f833 2024 	ldrh.w	r2, [r3, r4, lsl #2]
 8002dd2:	0456      	lsls	r6, r2, #17
 8002dd4:	d509      	bpl.n	8002dea <USB_ActivateEndpoint+0x246>
 8002dd6:	f833 2024 	ldrh.w	r2, [r3, r4, lsl #2]
 8002dda:	b292      	uxth	r2, r2
 8002ddc:	402a      	ands	r2, r5
 8002dde:	f442 4240 	orr.w	r2, r2, #49152	; 0xc000
 8002de2:	f042 0280 	orr.w	r2, r2, #128	; 0x80
 8002de6:	f823 2024 	strh.w	r2, [r3, r4, lsl #2]
 8002dea:	780c      	ldrb	r4, [r1, #0]
 8002dec:	f833 2024 	ldrh.w	r2, [r3, r4, lsl #2]
 8002df0:	0652      	lsls	r2, r2, #25
 8002df2:	d50d      	bpl.n	8002e10 <USB_ActivateEndpoint+0x26c>
 8002df4:	f833 2024 	ldrh.w	r2, [r3, r4, lsl #2]
 8002df8:	f422 42e0 	bic.w	r2, r2, #28672	; 0x7000
 8002dfc:	f022 0270 	bic.w	r2, r2, #112	; 0x70
 8002e00:	0412      	lsls	r2, r2, #16
 8002e02:	0c12      	lsrs	r2, r2, #16
 8002e04:	f442 4200 	orr.w	r2, r2, #32768	; 0x8000
 8002e08:	f042 02c0 	orr.w	r2, r2, #192	; 0xc0
 8002e0c:	f823 2024 	strh.w	r2, [r3, r4, lsl #2]
 8002e10:	78ca      	ldrb	r2, [r1, #3]
 8002e12:	780c      	ldrb	r4, [r1, #0]
 8002e14:	2a01      	cmp	r2, #1
 8002e16:	f833 2024 	ldrh.w	r2, [r3, r4, lsl #2]
 8002e1a:	4d0c      	ldr	r5, [pc, #48]	; (8002e4c <USB_ActivateEndpoint+0x2a8>)
 8002e1c:	b292      	uxth	r2, r2
 8002e1e:	ea02 0205 	and.w	r2, r2, r5
 8002e22:	bf18      	it	ne
 8002e24:	f082 0220 	eorne.w	r2, r2, #32
 8002e28:	f442 4200 	orr.w	r2, r2, #32768	; 0x8000
 8002e2c:	f042 0280 	orr.w	r2, r2, #128	; 0x80
 8002e30:	f823 2024 	strh.w	r2, [r3, r4, lsl #2]
 8002e34:	7809      	ldrb	r1, [r1, #0]
 8002e36:	f833 2021 	ldrh.w	r2, [r3, r1, lsl #2]
 8002e3a:	f422 4280 	bic.w	r2, r2, #16384	; 0x4000
 8002e3e:	f022 0270 	bic.w	r2, r2, #112	; 0x70
 8002e42:	0412      	lsls	r2, r2, #16
 8002e44:	0c12      	lsrs	r2, r2, #16
 8002e46:	e748      	b.n	8002cda <USB_ActivateEndpoint+0x136>
 8002e48:	ffff8f8f 	.word	0xffff8f8f
 8002e4c:	ffff8fbf 	.word	0xffff8fbf
 8002e50:	ffff8000 	.word	0xffff8000

08002e54 <USB_DeactivateEndpoint>:
 8002e54:	b510      	push	{r4, lr}
 8002e56:	7b0c      	ldrb	r4, [r1, #12]
 8002e58:	784b      	ldrb	r3, [r1, #1]
 8002e5a:	780a      	ldrb	r2, [r1, #0]
 8002e5c:	2c00      	cmp	r4, #0
 8002e5e:	d13d      	bne.n	8002edc <USB_DeactivateEndpoint+0x88>
 8002e60:	b313      	cbz	r3, 8002ea8 <USB_DeactivateEndpoint+0x54>
 8002e62:	f830 3022 	ldrh.w	r3, [r0, r2, lsl #2]
 8002e66:	065c      	lsls	r4, r3, #25
 8002e68:	d50d      	bpl.n	8002e86 <USB_DeactivateEndpoint+0x32>
 8002e6a:	f830 3022 	ldrh.w	r3, [r0, r2, lsl #2]
 8002e6e:	f423 43e0 	bic.w	r3, r3, #28672	; 0x7000
 8002e72:	f023 0370 	bic.w	r3, r3, #112	; 0x70
 8002e76:	041b      	lsls	r3, r3, #16
 8002e78:	0c1b      	lsrs	r3, r3, #16
 8002e7a:	f443 4300 	orr.w	r3, r3, #32768	; 0x8000
 8002e7e:	f043 03c0 	orr.w	r3, r3, #192	; 0xc0
 8002e82:	f820 3022 	strh.w	r3, [r0, r2, lsl #2]
 8002e86:	780a      	ldrb	r2, [r1, #0]
 8002e88:	f830 3022 	ldrh.w	r3, [r0, r2, lsl #2]
 8002e8c:	f423 43e0 	bic.w	r3, r3, #28672	; 0x7000
 8002e90:	f023 0340 	bic.w	r3, r3, #64	; 0x40
 8002e94:	041b      	lsls	r3, r3, #16
 8002e96:	0c1b      	lsrs	r3, r3, #16
 8002e98:	f443 4300 	orr.w	r3, r3, #32768	; 0x8000
 8002e9c:	f043 0380 	orr.w	r3, r3, #128	; 0x80
 8002ea0:	f820 3022 	strh.w	r3, [r0, r2, lsl #2]
 8002ea4:	2000      	movs	r0, #0
 8002ea6:	bd10      	pop	{r4, pc}
 8002ea8:	f830 3022 	ldrh.w	r3, [r0, r2, lsl #2]
 8002eac:	045b      	lsls	r3, r3, #17
 8002eae:	d50d      	bpl.n	8002ecc <USB_DeactivateEndpoint+0x78>
 8002eb0:	f830 3022 	ldrh.w	r3, [r0, r2, lsl #2]
 8002eb4:	f423 43e0 	bic.w	r3, r3, #28672	; 0x7000
 8002eb8:	f023 0370 	bic.w	r3, r3, #112	; 0x70
 8002ebc:	041b      	lsls	r3, r3, #16
 8002ebe:	0c1b      	lsrs	r3, r3, #16
 8002ec0:	f443 4340 	orr.w	r3, r3, #49152	; 0xc000
 8002ec4:	f043 0380 	orr.w	r3, r3, #128	; 0x80
 8002ec8:	f820 3022 	strh.w	r3, [r0, r2, lsl #2]
 8002ecc:	780a      	ldrb	r2, [r1, #0]
 8002ece:	f830 3022 	ldrh.w	r3, [r0, r2, lsl #2]
 8002ed2:	f423 4380 	bic.w	r3, r3, #16384	; 0x4000
 8002ed6:	f023 0370 	bic.w	r3, r3, #112	; 0x70
 8002eda:	e7db      	b.n	8002e94 <USB_DeactivateEndpoint+0x40>
 8002edc:	2b00      	cmp	r3, #0
 8002ede:	d14e      	bne.n	8002f7e <USB_DeactivateEndpoint+0x12a>
 8002ee0:	f830 3022 	ldrh.w	r3, [r0, r2, lsl #2]
 8002ee4:	045c      	lsls	r4, r3, #17
 8002ee6:	d50d      	bpl.n	8002f04 <USB_DeactivateEndpoint+0xb0>
 8002ee8:	f830 3022 	ldrh.w	r3, [r0, r2, lsl #2]
 8002eec:	f423 43e0 	bic.w	r3, r3, #28672	; 0x7000
 8002ef0:	f023 0370 	bic.w	r3, r3, #112	; 0x70
 8002ef4:	041b      	lsls	r3, r3, #16
 8002ef6:	0c1b      	lsrs	r3, r3, #16
 8002ef8:	f443 4340 	orr.w	r3, r3, #49152	; 0xc000
 8002efc:	f043 0380 	orr.w	r3, r3, #128	; 0x80
 8002f00:	f820 3022 	strh.w	r3, [r0, r2, lsl #2]
 8002f04:	780a      	ldrb	r2, [r1, #0]
 8002f06:	f830 3022 	ldrh.w	r3, [r0, r2, lsl #2]
 8002f0a:	065b      	lsls	r3, r3, #25
 8002f0c:	d50d      	bpl.n	8002f2a <USB_DeactivateEndpoint+0xd6>
 8002f0e:	f830 3022 	ldrh.w	r3, [r0, r2, lsl #2]
 8002f12:	f423 43e0 	bic.w	r3, r3, #28672	; 0x7000
 8002f16:	f023 0370 	bic.w	r3, r3, #112	; 0x70
 8002f1a:	041b      	lsls	r3, r3, #16
 8002f1c:	0c1b      	lsrs	r3, r3, #16
 8002f1e:	f443 4300 	orr.w	r3, r3, #32768	; 0x8000
 8002f22:	f043 03c0 	orr.w	r3, r3, #192	; 0xc0
 8002f26:	f820 3022 	strh.w	r3, [r0, r2, lsl #2]
 8002f2a:	780a      	ldrb	r2, [r1, #0]
 8002f2c:	f830 3022 	ldrh.w	r3, [r0, r2, lsl #2]
 8002f30:	f423 43e0 	bic.w	r3, r3, #28672	; 0x7000
 8002f34:	f023 0370 	bic.w	r3, r3, #112	; 0x70
 8002f38:	041b      	lsls	r3, r3, #16
 8002f3a:	0c1b      	lsrs	r3, r3, #16
 8002f3c:	f443 4300 	orr.w	r3, r3, #32768	; 0x8000
 8002f40:	f043 03c0 	orr.w	r3, r3, #192	; 0xc0
 8002f44:	f820 3022 	strh.w	r3, [r0, r2, lsl #2]
 8002f48:	f248 0280 	movw	r2, #32896	; 0x8080
 8002f4c:	780c      	ldrb	r4, [r1, #0]
 8002f4e:	f830 3024 	ldrh.w	r3, [r0, r4, lsl #2]
 8002f52:	f423 4380 	bic.w	r3, r3, #16384	; 0x4000
 8002f56:	f023 0370 	bic.w	r3, r3, #112	; 0x70
 8002f5a:	041b      	lsls	r3, r3, #16
 8002f5c:	0c1b      	lsrs	r3, r3, #16
 8002f5e:	4313      	orrs	r3, r2
 8002f60:	f820 3024 	strh.w	r3, [r0, r4, lsl #2]
 8002f64:	7809      	ldrb	r1, [r1, #0]
 8002f66:	f830 3021 	ldrh.w	r3, [r0, r1, lsl #2]
 8002f6a:	f423 43e0 	bic.w	r3, r3, #28672	; 0x7000
 8002f6e:	f023 0340 	bic.w	r3, r3, #64	; 0x40
 8002f72:	041b      	lsls	r3, r3, #16
 8002f74:	0c1b      	lsrs	r3, r3, #16
 8002f76:	4313      	orrs	r3, r2
 8002f78:	f820 3021 	strh.w	r3, [r0, r1, lsl #2]
 8002f7c:	e792      	b.n	8002ea4 <USB_DeactivateEndpoint+0x50>
 8002f7e:	f830 3022 	ldrh.w	r3, [r0, r2, lsl #2]
 8002f82:	045c      	lsls	r4, r3, #17
 8002f84:	d50d      	bpl.n	8002fa2 <USB_DeactivateEndpoint+0x14e>
 8002f86:	f830 3022 	ldrh.w	r3, [r0, r2, lsl #2]
 8002f8a:	f423 43e0 	bic.w	r3, r3, #28672	; 0x7000
 8002f8e:	f023 0370 	bic.w	r3, r3, #112	; 0x70
 8002f92:	041b      	lsls	r3, r3, #16
 8002f94:	0c1b      	lsrs	r3, r3, #16
 8002f96:	f443 4340 	orr.w	r3, r3, #49152	; 0xc000
 8002f9a:	f043 0380 	orr.w	r3, r3, #128	; 0x80
 8002f9e:	f820 3022 	strh.w	r3, [r0, r2, lsl #2]
 8002fa2:	780a      	ldrb	r2, [r1, #0]
 8002fa4:	f830 3022 	ldrh.w	r3, [r0, r2, lsl #2]
 8002fa8:	065b      	lsls	r3, r3, #25
 8002faa:	d50d      	bpl.n	8002fc8 <USB_DeactivateEndpoint+0x174>
 8002fac:	f830 3022 	ldrh.w	r3, [r0, r2, lsl #2]
 8002fb0:	f423 43e0 	bic.w	r3, r3, #28672	; 0x7000
 8002fb4:	f023 0370 	bic.w	r3, r3, #112	; 0x70
 8002fb8:	041b      	lsls	r3, r3, #16
 8002fba:	0c1b      	lsrs	r3, r3, #16
 8002fbc:	f443 4300 	orr.w	r3, r3, #32768	; 0x8000
 8002fc0:	f043 03c0 	orr.w	r3, r3, #192	; 0xc0
 8002fc4:	f820 3022 	strh.w	r3, [r0, r2, lsl #2]
 8002fc8:	780a      	ldrb	r2, [r1, #0]
 8002fca:	f830 3022 	ldrh.w	r3, [r0, r2, lsl #2]
 8002fce:	f423 43e0 	bic.w	r3, r3, #28672	; 0x7000
 8002fd2:	f023 0370 	bic.w	r3, r3, #112	; 0x70
 8002fd6:	041b      	lsls	r3, r3, #16
 8002fd8:	0c1b      	lsrs	r3, r3, #16
 8002fda:	f443 4340 	orr.w	r3, r3, #49152	; 0xc000
 8002fde:	f043 0380 	orr.w	r3, r3, #128	; 0x80
 8002fe2:	f820 3022 	strh.w	r3, [r0, r2, lsl #2]
 8002fe6:	f248 0280 	movw	r2, #32896	; 0x8080
 8002fea:	780c      	ldrb	r4, [r1, #0]
 8002fec:	f830 3024 	ldrh.w	r3, [r0, r4, lsl #2]
 8002ff0:	f423 43e0 	bic.w	r3, r3, #28672	; 0x7000
 8002ff4:	f023 0340 	bic.w	r3, r3, #64	; 0x40
 8002ff8:	041b      	lsls	r3, r3, #16
 8002ffa:	0c1b      	lsrs	r3, r3, #16
 8002ffc:	4313      	orrs	r3, r2
 8002ffe:	f820 3024 	strh.w	r3, [r0, r4, lsl #2]
 8003002:	7809      	ldrb	r1, [r1, #0]
 8003004:	f830 3021 	ldrh.w	r3, [r0, r1, lsl #2]
 8003008:	f423 4380 	bic.w	r3, r3, #16384	; 0x4000
 800300c:	f023 0370 	bic.w	r3, r3, #112	; 0x70
 8003010:	e7af      	b.n	8002f72 <USB_DeactivateEndpoint+0x11e>

08003012 <USB_EPSetStall>:
 8003012:	784b      	ldrb	r3, [r1, #1]
 8003014:	780a      	ldrb	r2, [r1, #0]
 8003016:	b18b      	cbz	r3, 800303c <USB_EPSetStall+0x2a>
 8003018:	f830 3022 	ldrh.w	r3, [r0, r2, lsl #2]
 800301c:	f423 43e0 	bic.w	r3, r3, #28672	; 0x7000
 8003020:	f023 0340 	bic.w	r3, r3, #64	; 0x40
 8003024:	041b      	lsls	r3, r3, #16
 8003026:	0c1b      	lsrs	r3, r3, #16
 8003028:	f083 0310 	eor.w	r3, r3, #16
 800302c:	f443 4300 	orr.w	r3, r3, #32768	; 0x8000
 8003030:	f043 0380 	orr.w	r3, r3, #128	; 0x80
 8003034:	f820 3022 	strh.w	r3, [r0, r2, lsl #2]
 8003038:	2000      	movs	r0, #0
 800303a:	4770      	bx	lr
 800303c:	f830 3022 	ldrh.w	r3, [r0, r2, lsl #2]
 8003040:	f423 4380 	bic.w	r3, r3, #16384	; 0x4000
 8003044:	f023 0370 	bic.w	r3, r3, #112	; 0x70
 8003048:	041b      	lsls	r3, r3, #16
 800304a:	0c1b      	lsrs	r3, r3, #16
 800304c:	f483 5380 	eor.w	r3, r3, #4096	; 0x1000
 8003050:	e7ec      	b.n	800302c <USB_EPSetStall+0x1a>

08003052 <USB_EPClearStall>:
 8003052:	7b0b      	ldrb	r3, [r1, #12]
 8003054:	bb43      	cbnz	r3, 80030a8 <USB_EPClearStall+0x56>
 8003056:	784b      	ldrb	r3, [r1, #1]
 8003058:	780a      	ldrb	r2, [r1, #0]
 800305a:	b33b      	cbz	r3, 80030ac <USB_EPClearStall+0x5a>
 800305c:	f830 3022 	ldrh.w	r3, [r0, r2, lsl #2]
 8003060:	065b      	lsls	r3, r3, #25
 8003062:	d50d      	bpl.n	8003080 <USB_EPClearStall+0x2e>
 8003064:	f830 3022 	ldrh.w	r3, [r0, r2, lsl #2]
 8003068:	f423 43e0 	bic.w	r3, r3, #28672	; 0x7000
 800306c:	f023 0370 	bic.w	r3, r3, #112	; 0x70
 8003070:	041b      	lsls	r3, r3, #16
 8003072:	0c1b      	lsrs	r3, r3, #16
 8003074:	f443 4300 	orr.w	r3, r3, #32768	; 0x8000
 8003078:	f043 03c0 	orr.w	r3, r3, #192	; 0xc0
 800307c:	f820 3022 	strh.w	r3, [r0, r2, lsl #2]
 8003080:	78cb      	ldrb	r3, [r1, #3]
 8003082:	2b01      	cmp	r3, #1
 8003084:	d010      	beq.n	80030a8 <USB_EPClearStall+0x56>
 8003086:	780a      	ldrb	r2, [r1, #0]
 8003088:	f830 3022 	ldrh.w	r3, [r0, r2, lsl #2]
 800308c:	f423 43e0 	bic.w	r3, r3, #28672	; 0x7000
 8003090:	f023 0340 	bic.w	r3, r3, #64	; 0x40
 8003094:	041b      	lsls	r3, r3, #16
 8003096:	0c1b      	lsrs	r3, r3, #16
 8003098:	f083 0320 	eor.w	r3, r3, #32
 800309c:	f443 4300 	orr.w	r3, r3, #32768	; 0x8000
 80030a0:	f043 0380 	orr.w	r3, r3, #128	; 0x80
 80030a4:	f820 3022 	strh.w	r3, [r0, r2, lsl #2]
 80030a8:	2000      	movs	r0, #0
 80030aa:	4770      	bx	lr
 80030ac:	f830 3022 	ldrh.w	r3, [r0, r2, lsl #2]
 80030b0:	045b      	lsls	r3, r3, #17
 80030b2:	d50d      	bpl.n	80030d0 <USB_EPClearStall+0x7e>
 80030b4:	f830 3022 	ldrh.w	r3, [r0, r2, lsl #2]
 80030b8:	f423 43e0 	bic.w	r3, r3, #28672	; 0x7000
 80030bc:	f023 0370 	bic.w	r3, r3, #112	; 0x70
 80030c0:	041b      	lsls	r3, r3, #16
 80030c2:	0c1b      	lsrs	r3, r3, #16
 80030c4:	f443 4340 	orr.w	r3, r3, #49152	; 0xc000
 80030c8:	f043 0380 	orr.w	r3, r3, #128	; 0x80
 80030cc:	f820 3022 	strh.w	r3, [r0, r2, lsl #2]
 80030d0:	780a      	ldrb	r2, [r1, #0]
 80030d2:	f830 3022 	ldrh.w	r3, [r0, r2, lsl #2]
 80030d6:	f423 4380 	bic.w	r3, r3, #16384	; 0x4000
 80030da:	f023 0370 	bic.w	r3, r3, #112	; 0x70
 80030de:	041b      	lsls	r3, r3, #16
 80030e0:	0c1b      	lsrs	r3, r3, #16
 80030e2:	f483 5340 	eor.w	r3, r3, #12288	; 0x3000
 80030e6:	e7d9      	b.n	800309c <USB_EPClearStall+0x4a>

080030e8 <USB_StopDevice>:
 80030e8:	2201      	movs	r2, #1
 80030ea:	4603      	mov	r3, r0
 80030ec:	f8a0 2040 	strh.w	r2, [r0, #64]	; 0x40
 80030f0:	2000      	movs	r0, #0
 80030f2:	2203      	movs	r2, #3
 80030f4:	f8a3 0044 	strh.w	r0, [r3, #68]	; 0x44
 80030f8:	f8a3 2040 	strh.w	r2, [r3, #64]	; 0x40
 80030fc:	4770      	bx	lr

080030fe <USB_SetDevAddress>:
 80030fe:	b911      	cbnz	r1, 8003106 <USB_SetDevAddress+0x8>
 8003100:	2380      	movs	r3, #128	; 0x80
 8003102:	f8a0 304c 	strh.w	r3, [r0, #76]	; 0x4c
 8003106:	2000      	movs	r0, #0
 8003108:	4770      	bx	lr

0800310a <USB_DevConnect>:
 800310a:	2000      	movs	r0, #0
 800310c:	4770      	bx	lr

0800310e <USB_DevDisconnect>:
 800310e:	2000      	movs	r0, #0
 8003110:	4770      	bx	lr

08003112 <USB_ReadInterrupts>:
 8003112:	f8b0 0044 	ldrh.w	r0, [r0, #68]	; 0x44
 8003116:	b280      	uxth	r0, r0
 8003118:	4770      	bx	lr

0800311a <USB_EP0_OutStart>:
 800311a:	2000      	movs	r0, #0
 800311c:	4770      	bx	lr

0800311e <USB_WritePMA>:
 800311e:	eb00 0242 	add.w	r2, r0, r2, lsl #1
 8003122:	3301      	adds	r3, #1
 8003124:	f502 6280 	add.w	r2, r2, #1024	; 0x400
 8003128:	085b      	lsrs	r3, r3, #1
 800312a:	eb02 0383 	add.w	r3, r2, r3, lsl #2
 800312e:	429a      	cmp	r2, r3
 8003130:	d100      	bne.n	8003134 <USB_WritePMA+0x16>
 8003132:	4770      	bx	lr
 8003134:	f831 0b02 	ldrh.w	r0, [r1], #2
 8003138:	f822 0b04 	strh.w	r0, [r2], #4
 800313c:	e7f7      	b.n	800312e <USB_WritePMA+0x10>
	...

08003140 <USB_EPStartXfer>:
 8003140:	b5f8      	push	{r3, r4, r5, r6, r7, lr}
 8003142:	460c      	mov	r4, r1
 8003144:	7849      	ldrb	r1, [r1, #1]
 8003146:	4605      	mov	r5, r0
 8003148:	2901      	cmp	r1, #1
 800314a:	7b22      	ldrb	r2, [r4, #12]
 800314c:	f040 8255 	bne.w	80035fa <USB_EPStartXfer+0x4ba>
 8003150:	f8d4 c010 	ldr.w	ip, [r4, #16]
 8003154:	69a6      	ldr	r6, [r4, #24]
 8003156:	6961      	ldr	r1, [r4, #20]
 8003158:	4566      	cmp	r6, ip
 800315a:	bf28      	it	cs
 800315c:	4666      	movcs	r6, ip
 800315e:	bb02      	cbnz	r2, 80031a2 <USB_EPStartXfer+0x62>
 8003160:	b2b6      	uxth	r6, r6
 8003162:	88e2      	ldrh	r2, [r4, #6]
 8003164:	4633      	mov	r3, r6
 8003166:	f7ff ffda 	bl	800311e <USB_WritePMA>
 800316a:	f8b5 2050 	ldrh.w	r2, [r5, #80]	; 0x50
 800316e:	7821      	ldrb	r1, [r4, #0]
 8003170:	b290      	uxth	r0, r2
 8003172:	f205 4204 	addw	r2, r5, #1028	; 0x404
 8003176:	0109      	lsls	r1, r1, #4
 8003178:	4402      	add	r2, r0
 800317a:	528e      	strh	r6, [r1, r2]
 800317c:	7822      	ldrb	r2, [r4, #0]
 800317e:	f835 3022 	ldrh.w	r3, [r5, r2, lsl #2]
 8003182:	f423 43e0 	bic.w	r3, r3, #28672	; 0x7000
 8003186:	f023 0340 	bic.w	r3, r3, #64	; 0x40
 800318a:	041b      	lsls	r3, r3, #16
 800318c:	0c1b      	lsrs	r3, r3, #16
 800318e:	f083 0330 	eor.w	r3, r3, #48	; 0x30
 8003192:	2000      	movs	r0, #0
 8003194:	f443 4300 	orr.w	r3, r3, #32768	; 0x8000
 8003198:	f043 0380 	orr.w	r3, r3, #128	; 0x80
 800319c:	f825 3022 	strh.w	r3, [r5, r2, lsl #2]
 80031a0:	bdf8      	pop	{r3, r4, r5, r6, r7, pc}
 80031a2:	78e2      	ldrb	r2, [r4, #3]
 80031a4:	7827      	ldrb	r7, [r4, #0]
 80031a6:	2a02      	cmp	r2, #2
 80031a8:	6a23      	ldr	r3, [r4, #32]
 80031aa:	f830 2027 	ldrh.w	r2, [r0, r7, lsl #2]
 80031ae:	f040 811e 	bne.w	80033ee <USB_EPStartXfer+0x2ae>
 80031b2:	459c      	cmp	ip, r3
 80031b4:	f080 8101 	bcs.w	80033ba <USB_EPStartXfer+0x27a>
 80031b8:	f422 42e0 	bic.w	r2, r2, #28672	; 0x7000
 80031bc:	f022 0270 	bic.w	r2, r2, #112	; 0x70
 80031c0:	0412      	lsls	r2, r2, #16
 80031c2:	0c12      	lsrs	r2, r2, #16
 80031c4:	f442 4201 	orr.w	r2, r2, #33024	; 0x8100
 80031c8:	f042 0280 	orr.w	r2, r2, #128	; 0x80
 80031cc:	f820 2027 	strh.w	r2, [r0, r7, lsl #2]
 80031d0:	7822      	ldrb	r2, [r4, #0]
 80031d2:	1b9b      	subs	r3, r3, r6
 80031d4:	f830 0022 	ldrh.w	r0, [r0, r2, lsl #2]
 80031d8:	6223      	str	r3, [r4, #32]
 80031da:	f010 0f40 	tst.w	r0, #64	; 0x40
 80031de:	b2b3      	uxth	r3, r6
 80031e0:	7860      	ldrb	r0, [r4, #1]
 80031e2:	d075      	beq.n	80032d0 <USB_EPStartXfer+0x190>
 80031e4:	2800      	cmp	r0, #0
 80031e6:	d153      	bne.n	8003290 <USB_EPStartXfer+0x150>
 80031e8:	f8b5 0050 	ldrh.w	r0, [r5, #80]	; 0x50
 80031ec:	f205 470c 	addw	r7, r5, #1036	; 0x40c
 80031f0:	b280      	uxth	r0, r0
 80031f2:	4438      	add	r0, r7
 80031f4:	0112      	lsls	r2, r2, #4
 80031f6:	2e00      	cmp	r6, #0
 80031f8:	d137      	bne.n	800326a <USB_EPStartXfer+0x12a>
 80031fa:	5a87      	ldrh	r7, [r0, r2]
 80031fc:	f427 47f8 	bic.w	r7, r7, #31744	; 0x7c00
 8003200:	043f      	lsls	r7, r7, #16
 8003202:	0c3f      	lsrs	r7, r7, #16
 8003204:	5287      	strh	r7, [r0, r2]
 8003206:	5a87      	ldrh	r7, [r0, r2]
 8003208:	ea6f 4747 	mvn.w	r7, r7, lsl #17
 800320c:	ea6f 4757 	mvn.w	r7, r7, lsr #17
 8003210:	b2bf      	uxth	r7, r7
 8003212:	5287      	strh	r7, [r0, r2]
 8003214:	4628      	mov	r0, r5
 8003216:	8962      	ldrh	r2, [r4, #10]
 8003218:	f7ff ff81 	bl	800311e <USB_WritePMA>
 800321c:	6a22      	ldr	r2, [r4, #32]
 800321e:	6923      	ldr	r3, [r4, #16]
 8003220:	6961      	ldr	r1, [r4, #20]
 8003222:	429a      	cmp	r2, r3
 8003224:	bf8a      	itet	hi
 8003226:	1b93      	subhi	r3, r2, r6
 8003228:	2300      	movls	r3, #0
 800322a:	4632      	movhi	r2, r6
 800322c:	7860      	ldrb	r0, [r4, #1]
 800322e:	4431      	add	r1, r6
 8003230:	6223      	str	r3, [r4, #32]
 8003232:	6161      	str	r1, [r4, #20]
 8003234:	b293      	uxth	r3, r2
 8003236:	2800      	cmp	r0, #0
 8003238:	f040 8159 	bne.w	80034ee <USB_EPStartXfer+0x3ae>
 800323c:	f8b5 0050 	ldrh.w	r0, [r5, #80]	; 0x50
 8003240:	7826      	ldrb	r6, [r4, #0]
 8003242:	b280      	uxth	r0, r0
 8003244:	f205 4704 	addw	r7, r5, #1028	; 0x404
 8003248:	0136      	lsls	r6, r6, #4
 800324a:	4438      	add	r0, r7
 800324c:	bb5a      	cbnz	r2, 80032a6 <USB_EPStartXfer+0x166>
 800324e:	5a32      	ldrh	r2, [r6, r0]
 8003250:	f422 42f8 	bic.w	r2, r2, #31744	; 0x7c00
 8003254:	0412      	lsls	r2, r2, #16
 8003256:	0c12      	lsrs	r2, r2, #16
 8003258:	5232      	strh	r2, [r6, r0]
 800325a:	5a32      	ldrh	r2, [r6, r0]
 800325c:	ea6f 4242 	mvn.w	r2, r2, lsl #17
 8003260:	ea6f 4252 	mvn.w	r2, r2, lsr #17
 8003264:	b292      	uxth	r2, r2
 8003266:	5232      	strh	r2, [r6, r0]
 8003268:	e026      	b.n	80032b8 <USB_EPStartXfer+0x178>
 800326a:	2e3e      	cmp	r6, #62	; 0x3e
 800326c:	d806      	bhi.n	800327c <USB_EPStartXfer+0x13c>
 800326e:	0877      	lsrs	r7, r6, #1
 8003270:	f016 0f01 	tst.w	r6, #1
 8003274:	bf18      	it	ne
 8003276:	3701      	addne	r7, #1
 8003278:	02bf      	lsls	r7, r7, #10
 800327a:	e7c9      	b.n	8003210 <USB_EPStartXfer+0xd0>
 800327c:	ea4f 1c56 	mov.w	ip, r6, lsr #5
 8003280:	06f7      	lsls	r7, r6, #27
 8003282:	4fa1      	ldr	r7, [pc, #644]	; (8003508 <USB_EPStartXfer+0x3c8>)
 8003284:	bf08      	it	eq
 8003286:	f10c 3cff 	addeq.w	ip, ip, #4294967295
 800328a:	ea47 278c 	orr.w	r7, r7, ip, lsl #10
 800328e:	e7bf      	b.n	8003210 <USB_EPStartXfer+0xd0>
 8003290:	2801      	cmp	r0, #1
 8003292:	d1bf      	bne.n	8003214 <USB_EPStartXfer+0xd4>
 8003294:	f8b5 0050 	ldrh.w	r0, [r5, #80]	; 0x50
 8003298:	0112      	lsls	r2, r2, #4
 800329a:	b287      	uxth	r7, r0
 800329c:	f205 400c 	addw	r0, r5, #1036	; 0x40c
 80032a0:	4438      	add	r0, r7
 80032a2:	5283      	strh	r3, [r0, r2]
 80032a4:	e7b6      	b.n	8003214 <USB_EPStartXfer+0xd4>
 80032a6:	2a3e      	cmp	r2, #62	; 0x3e
 80032a8:	d809      	bhi.n	80032be <USB_EPStartXfer+0x17e>
 80032aa:	0857      	lsrs	r7, r2, #1
 80032ac:	07d2      	lsls	r2, r2, #31
 80032ae:	bf48      	it	mi
 80032b0:	3701      	addmi	r7, #1
 80032b2:	02bf      	lsls	r7, r7, #10
 80032b4:	b2bf      	uxth	r7, r7
 80032b6:	5237      	strh	r7, [r6, r0]
 80032b8:	8922      	ldrh	r2, [r4, #8]
 80032ba:	4628      	mov	r0, r5
 80032bc:	e094      	b.n	80033e8 <USB_EPStartXfer+0x2a8>
 80032be:	0957      	lsrs	r7, r2, #5
 80032c0:	06d2      	lsls	r2, r2, #27
 80032c2:	4a91      	ldr	r2, [pc, #580]	; (8003508 <USB_EPStartXfer+0x3c8>)
 80032c4:	bf08      	it	eq
 80032c6:	f107 37ff 	addeq.w	r7, r7, #4294967295
 80032ca:	ea42 2287 	orr.w	r2, r2, r7, lsl #10
 80032ce:	e7c9      	b.n	8003264 <USB_EPStartXfer+0x124>
 80032d0:	2800      	cmp	r0, #0
 80032d2:	d153      	bne.n	800337c <USB_EPStartXfer+0x23c>
 80032d4:	f8b5 0050 	ldrh.w	r0, [r5, #80]	; 0x50
 80032d8:	f205 4704 	addw	r7, r5, #1028	; 0x404
 80032dc:	b280      	uxth	r0, r0
 80032de:	4438      	add	r0, r7
 80032e0:	0112      	lsls	r2, r2, #4
 80032e2:	2e00      	cmp	r6, #0
 80032e4:	d137      	bne.n	8003356 <USB_EPStartXfer+0x216>
 80032e6:	5a87      	ldrh	r7, [r0, r2]
 80032e8:	f427 47f8 	bic.w	r7, r7, #31744	; 0x7c00
 80032ec:	043f      	lsls	r7, r7, #16
 80032ee:	0c3f      	lsrs	r7, r7, #16
 80032f0:	5287      	strh	r7, [r0, r2]
 80032f2:	5a87      	ldrh	r7, [r0, r2]
 80032f4:	ea6f 4747 	mvn.w	r7, r7, lsl #17
 80032f8:	ea6f 4757 	mvn.w	r7, r7, lsr #17
 80032fc:	b2bf      	uxth	r7, r7
 80032fe:	5287      	strh	r7, [r0, r2]
 8003300:	4628      	mov	r0, r5
 8003302:	8922      	ldrh	r2, [r4, #8]
 8003304:	f7ff ff0b 	bl	800311e <USB_WritePMA>
 8003308:	6a22      	ldr	r2, [r4, #32]
 800330a:	6923      	ldr	r3, [r4, #16]
 800330c:	6961      	ldr	r1, [r4, #20]
 800330e:	429a      	cmp	r2, r3
 8003310:	bf8a      	itet	hi
 8003312:	1b93      	subhi	r3, r2, r6
 8003314:	2300      	movls	r3, #0
 8003316:	4632      	movhi	r2, r6
 8003318:	7860      	ldrb	r0, [r4, #1]
 800331a:	4431      	add	r1, r6
 800331c:	6223      	str	r3, [r4, #32]
 800331e:	6161      	str	r1, [r4, #20]
 8003320:	b293      	uxth	r3, r2
 8003322:	2800      	cmp	r0, #0
 8003324:	f040 815c 	bne.w	80035e0 <USB_EPStartXfer+0x4a0>
 8003328:	f8b5 0050 	ldrh.w	r0, [r5, #80]	; 0x50
 800332c:	7826      	ldrb	r6, [r4, #0]
 800332e:	b280      	uxth	r0, r0
 8003330:	f205 470c 	addw	r7, r5, #1036	; 0x40c
 8003334:	0136      	lsls	r6, r6, #4
 8003336:	4438      	add	r0, r7
 8003338:	bb5a      	cbnz	r2, 8003392 <USB_EPStartXfer+0x252>
 800333a:	5a32      	ldrh	r2, [r6, r0]
 800333c:	f422 42f8 	bic.w	r2, r2, #31744	; 0x7c00
 8003340:	0412      	lsls	r2, r2, #16
 8003342:	0c12      	lsrs	r2, r2, #16
 8003344:	5232      	strh	r2, [r6, r0]
 8003346:	5a32      	ldrh	r2, [r6, r0]
 8003348:	ea6f 4242 	mvn.w	r2, r2, lsl #17
 800334c:	ea6f 4252 	mvn.w	r2, r2, lsr #17
 8003350:	b292      	uxth	r2, r2
 8003352:	5232      	strh	r2, [r6, r0]
 8003354:	e026      	b.n	80033a4 <USB_EPStartXfer+0x264>
 8003356:	2e3e      	cmp	r6, #62	; 0x3e
 8003358:	d806      	bhi.n	8003368 <USB_EPStartXfer+0x228>
 800335a:	0877      	lsrs	r7, r6, #1
 800335c:	f016 0f01 	tst.w	r6, #1
 8003360:	bf18      	it	ne
 8003362:	3701      	addne	r7, #1
 8003364:	02bf      	lsls	r7, r7, #10
 8003366:	e7c9      	b.n	80032fc <USB_EPStartXfer+0x1bc>
 8003368:	ea4f 1c56 	mov.w	ip, r6, lsr #5
 800336c:	06f7      	lsls	r7, r6, #27
 800336e:	4f66      	ldr	r7, [pc, #408]	; (8003508 <USB_EPStartXfer+0x3c8>)
 8003370:	bf08      	it	eq
 8003372:	f10c 3cff 	addeq.w	ip, ip, #4294967295
 8003376:	ea47 278c 	orr.w	r7, r7, ip, lsl #10
 800337a:	e7bf      	b.n	80032fc <USB_EPStartXfer+0x1bc>
 800337c:	2801      	cmp	r0, #1
 800337e:	d1bf      	bne.n	8003300 <USB_EPStartXfer+0x1c0>
 8003380:	f8b5 0050 	ldrh.w	r0, [r5, #80]	; 0x50
 8003384:	0112      	lsls	r2, r2, #4
 8003386:	b287      	uxth	r7, r0
 8003388:	f205 4004 	addw	r0, r5, #1028	; 0x404
 800338c:	4438      	add	r0, r7
 800338e:	5283      	strh	r3, [r0, r2]
 8003390:	e7b6      	b.n	8003300 <USB_EPStartXfer+0x1c0>
 8003392:	2a3e      	cmp	r2, #62	; 0x3e
 8003394:	d808      	bhi.n	80033a8 <USB_EPStartXfer+0x268>
 8003396:	0857      	lsrs	r7, r2, #1
 8003398:	07d2      	lsls	r2, r2, #31
 800339a:	bf48      	it	mi
 800339c:	3701      	addmi	r7, #1
 800339e:	02bf      	lsls	r7, r7, #10
 80033a0:	b2bf      	uxth	r7, r7
 80033a2:	5237      	strh	r7, [r6, r0]
 80033a4:	8962      	ldrh	r2, [r4, #10]
 80033a6:	e788      	b.n	80032ba <USB_EPStartXfer+0x17a>
 80033a8:	0957      	lsrs	r7, r2, #5
 80033aa:	06d2      	lsls	r2, r2, #27
 80033ac:	4a56      	ldr	r2, [pc, #344]	; (8003508 <USB_EPStartXfer+0x3c8>)
 80033ae:	bf08      	it	eq
 80033b0:	f107 37ff 	addeq.w	r7, r7, #4294967295
 80033b4:	ea42 2287 	orr.w	r2, r2, r7, lsl #10
 80033b8:	e7ca      	b.n	8003350 <USB_EPStartXfer+0x210>
 80033ba:	f422 42e2 	bic.w	r2, r2, #28928	; 0x7100
 80033be:	f022 0270 	bic.w	r2, r2, #112	; 0x70
 80033c2:	0412      	lsls	r2, r2, #16
 80033c4:	0c12      	lsrs	r2, r2, #16
 80033c6:	f442 4200 	orr.w	r2, r2, #32768	; 0x8000
 80033ca:	f042 0280 	orr.w	r2, r2, #128	; 0x80
 80033ce:	f820 2027 	strh.w	r2, [r0, r7, lsl #2]
 80033d2:	f8b0 2050 	ldrh.w	r2, [r0, #80]	; 0x50
 80033d6:	7826      	ldrb	r6, [r4, #0]
 80033d8:	b297      	uxth	r7, r2
 80033da:	f200 4204 	addw	r2, r0, #1028	; 0x404
 80033de:	443a      	add	r2, r7
 80033e0:	0136      	lsls	r6, r6, #4
 80033e2:	b29b      	uxth	r3, r3
 80033e4:	52b3      	strh	r3, [r6, r2]
 80033e6:	8922      	ldrh	r2, [r4, #8]
 80033e8:	f7ff fe99 	bl	800311e <USB_WritePMA>
 80033ec:	e6c6      	b.n	800317c <USB_EPStartXfer+0x3c>
 80033ee:	f422 42e0 	bic.w	r2, r2, #28672	; 0x7000
 80033f2:	f022 0270 	bic.w	r2, r2, #112	; 0x70
 80033f6:	0412      	lsls	r2, r2, #16
 80033f8:	0c12      	lsrs	r2, r2, #16
 80033fa:	f442 4201 	orr.w	r2, r2, #33024	; 0x8100
 80033fe:	f042 0280 	orr.w	r2, r2, #128	; 0x80
 8003402:	f820 2027 	strh.w	r2, [r0, r7, lsl #2]
 8003406:	7822      	ldrb	r2, [r4, #0]
 8003408:	1b9b      	subs	r3, r3, r6
 800340a:	f830 0022 	ldrh.w	r0, [r0, r2, lsl #2]
 800340e:	6223      	str	r3, [r4, #32]
 8003410:	f010 0f40 	tst.w	r0, #64	; 0x40
 8003414:	b2b3      	uxth	r3, r6
 8003416:	7860      	ldrb	r0, [r4, #1]
 8003418:	d078      	beq.n	800350c <USB_EPStartXfer+0x3cc>
 800341a:	2800      	cmp	r0, #0
 800341c:	d151      	bne.n	80034c2 <USB_EPStartXfer+0x382>
 800341e:	f8b5 0050 	ldrh.w	r0, [r5, #80]	; 0x50
 8003422:	f205 470c 	addw	r7, r5, #1036	; 0x40c
 8003426:	b280      	uxth	r0, r0
 8003428:	4438      	add	r0, r7
 800342a:	0112      	lsls	r2, r2, #4
 800342c:	2e00      	cmp	r6, #0
 800342e:	d135      	bne.n	800349c <USB_EPStartXfer+0x35c>
 8003430:	5a87      	ldrh	r7, [r0, r2]
 8003432:	f427 47f8 	bic.w	r7, r7, #31744	; 0x7c00
 8003436:	043f      	lsls	r7, r7, #16
 8003438:	0c3f      	lsrs	r7, r7, #16
 800343a:	5287      	strh	r7, [r0, r2]
 800343c:	5a87      	ldrh	r7, [r0, r2]
 800343e:	ea6f 4747 	mvn.w	r7, r7, lsl #17
 8003442:	ea6f 4757 	mvn.w	r7, r7, lsr #17
 8003446:	b2bf      	uxth	r7, r7
 8003448:	5287      	strh	r7, [r0, r2]
 800344a:	8962      	ldrh	r2, [r4, #10]
 800344c:	4628      	mov	r0, r5
 800344e:	f7ff fe66 	bl	800311e <USB_WritePMA>
 8003452:	6a22      	ldr	r2, [r4, #32]
 8003454:	6923      	ldr	r3, [r4, #16]
 8003456:	6961      	ldr	r1, [r4, #20]
 8003458:	429a      	cmp	r2, r3
 800345a:	bf8a      	itet	hi
 800345c:	1b93      	subhi	r3, r2, r6
 800345e:	2300      	movls	r3, #0
 8003460:	4632      	movhi	r2, r6
 8003462:	4431      	add	r1, r6
 8003464:	6161      	str	r1, [r4, #20]
 8003466:	6223      	str	r3, [r4, #32]
 8003468:	2a00      	cmp	r2, #0
 800346a:	f43f ae87 	beq.w	800317c <USB_EPStartXfer+0x3c>
 800346e:	7860      	ldrb	r0, [r4, #1]
 8003470:	b293      	uxth	r3, r2
 8003472:	2800      	cmp	r0, #0
 8003474:	d13b      	bne.n	80034ee <USB_EPStartXfer+0x3ae>
 8003476:	f8b5 6050 	ldrh.w	r6, [r5, #80]	; 0x50
 800347a:	7827      	ldrb	r7, [r4, #0]
 800347c:	b2b0      	uxth	r0, r6
 800347e:	2a3e      	cmp	r2, #62	; 0x3e
 8003480:	f205 4604 	addw	r6, r5, #1028	; 0x404
 8003484:	ea4f 1707 	mov.w	r7, r7, lsl #4
 8003488:	4406      	add	r6, r0
 800348a:	d825      	bhi.n	80034d8 <USB_EPStartXfer+0x398>
 800348c:	0850      	lsrs	r0, r2, #1
 800348e:	07d2      	lsls	r2, r2, #31
 8003490:	bf48      	it	mi
 8003492:	3001      	addmi	r0, #1
 8003494:	0280      	lsls	r0, r0, #10
 8003496:	b280      	uxth	r0, r0
 8003498:	53b8      	strh	r0, [r7, r6]
 800349a:	e70d      	b.n	80032b8 <USB_EPStartXfer+0x178>
 800349c:	2e3e      	cmp	r6, #62	; 0x3e
 800349e:	d806      	bhi.n	80034ae <USB_EPStartXfer+0x36e>
 80034a0:	0877      	lsrs	r7, r6, #1
 80034a2:	f016 0f01 	tst.w	r6, #1
 80034a6:	bf18      	it	ne
 80034a8:	3701      	addne	r7, #1
 80034aa:	02bf      	lsls	r7, r7, #10
 80034ac:	e7cb      	b.n	8003446 <USB_EPStartXfer+0x306>
 80034ae:	ea4f 1c56 	mov.w	ip, r6, lsr #5
 80034b2:	06f7      	lsls	r7, r6, #27
 80034b4:	4f14      	ldr	r7, [pc, #80]	; (8003508 <USB_EPStartXfer+0x3c8>)
 80034b6:	bf08      	it	eq
 80034b8:	f10c 3cff 	addeq.w	ip, ip, #4294967295
 80034bc:	ea47 278c 	orr.w	r7, r7, ip, lsl #10
 80034c0:	e7c1      	b.n	8003446 <USB_EPStartXfer+0x306>
 80034c2:	2801      	cmp	r0, #1
 80034c4:	d1c1      	bne.n	800344a <USB_EPStartXfer+0x30a>
 80034c6:	f8b5 0050 	ldrh.w	r0, [r5, #80]	; 0x50
 80034ca:	0112      	lsls	r2, r2, #4
 80034cc:	b287      	uxth	r7, r0
 80034ce:	f205 400c 	addw	r0, r5, #1036	; 0x40c
 80034d2:	4438      	add	r0, r7
 80034d4:	5283      	strh	r3, [r0, r2]
 80034d6:	e7b8      	b.n	800344a <USB_EPStartXfer+0x30a>
 80034d8:	0950      	lsrs	r0, r2, #5
 80034da:	06d2      	lsls	r2, r2, #27
 80034dc:	4a0a      	ldr	r2, [pc, #40]	; (8003508 <USB_EPStartXfer+0x3c8>)
 80034de:	bf08      	it	eq
 80034e0:	f100 30ff 	addeq.w	r0, r0, #4294967295
 80034e4:	ea42 2280 	orr.w	r2, r2, r0, lsl #10
 80034e8:	b292      	uxth	r2, r2
 80034ea:	53ba      	strh	r2, [r7, r6]
 80034ec:	e6e4      	b.n	80032b8 <USB_EPStartXfer+0x178>
 80034ee:	2801      	cmp	r0, #1
 80034f0:	f47f aee2 	bne.w	80032b8 <USB_EPStartXfer+0x178>
 80034f4:	f8b5 2050 	ldrh.w	r2, [r5, #80]	; 0x50
 80034f8:	7820      	ldrb	r0, [r4, #0]
 80034fa:	b296      	uxth	r6, r2
 80034fc:	f205 4204 	addw	r2, r5, #1028	; 0x404
 8003500:	0100      	lsls	r0, r0, #4
 8003502:	4432      	add	r2, r6
 8003504:	5283      	strh	r3, [r0, r2]
 8003506:	e6d7      	b.n	80032b8 <USB_EPStartXfer+0x178>
 8003508:	ffff8000 	.word	0xffff8000
 800350c:	2800      	cmp	r0, #0
 800350e:	d151      	bne.n	80035b4 <USB_EPStartXfer+0x474>
 8003510:	f8b5 0050 	ldrh.w	r0, [r5, #80]	; 0x50
 8003514:	f205 4704 	addw	r7, r5, #1028	; 0x404
 8003518:	b280      	uxth	r0, r0
 800351a:	4438      	add	r0, r7
 800351c:	0112      	lsls	r2, r2, #4
 800351e:	2e00      	cmp	r6, #0
 8003520:	d135      	bne.n	800358e <USB_EPStartXfer+0x44e>
 8003522:	5a87      	ldrh	r7, [r0, r2]
 8003524:	f427 47f8 	bic.w	r7, r7, #31744	; 0x7c00
 8003528:	043f      	lsls	r7, r7, #16
 800352a:	0c3f      	lsrs	r7, r7, #16
 800352c:	5287      	strh	r7, [r0, r2]
 800352e:	5a87      	ldrh	r7, [r0, r2]
 8003530:	ea6f 4747 	mvn.w	r7, r7, lsl #17
 8003534:	ea6f 4757 	mvn.w	r7, r7, lsr #17
 8003538:	b2bf      	uxth	r7, r7
 800353a:	5287      	strh	r7, [r0, r2]
 800353c:	8922      	ldrh	r2, [r4, #8]
 800353e:	4628      	mov	r0, r5
 8003540:	f7ff fded 	bl	800311e <USB_WritePMA>
 8003544:	6a22      	ldr	r2, [r4, #32]
 8003546:	6923      	ldr	r3, [r4, #16]
 8003548:	6961      	ldr	r1, [r4, #20]
 800354a:	429a      	cmp	r2, r3
 800354c:	bf8a      	itet	hi
 800354e:	1b93      	subhi	r3, r2, r6
 8003550:	2300      	movls	r3, #0
 8003552:	4632      	movhi	r2, r6
 8003554:	4431      	add	r1, r6
 8003556:	6161      	str	r1, [r4, #20]
 8003558:	6223      	str	r3, [r4, #32]
 800355a:	2a00      	cmp	r2, #0
 800355c:	f43f ae0e 	beq.w	800317c <USB_EPStartXfer+0x3c>
 8003560:	7860      	ldrb	r0, [r4, #1]
 8003562:	b293      	uxth	r3, r2
 8003564:	2800      	cmp	r0, #0
 8003566:	d13b      	bne.n	80035e0 <USB_EPStartXfer+0x4a0>
 8003568:	f8b5 6050 	ldrh.w	r6, [r5, #80]	; 0x50
 800356c:	7827      	ldrb	r7, [r4, #0]
 800356e:	b2b0      	uxth	r0, r6
 8003570:	2a3e      	cmp	r2, #62	; 0x3e
 8003572:	f205 460c 	addw	r6, r5, #1036	; 0x40c
 8003576:	ea4f 1707 	mov.w	r7, r7, lsl #4
 800357a:	4406      	add	r6, r0
 800357c:	d825      	bhi.n	80035ca <USB_EPStartXfer+0x48a>
 800357e:	0850      	lsrs	r0, r2, #1
 8003580:	07d2      	lsls	r2, r2, #31
 8003582:	bf48      	it	mi
 8003584:	3001      	addmi	r0, #1
 8003586:	0280      	lsls	r0, r0, #10
 8003588:	b280      	uxth	r0, r0
 800358a:	53b8      	strh	r0, [r7, r6]
 800358c:	e70a      	b.n	80033a4 <USB_EPStartXfer+0x264>
 800358e:	2e3e      	cmp	r6, #62	; 0x3e
 8003590:	d806      	bhi.n	80035a0 <USB_EPStartXfer+0x460>
 8003592:	0877      	lsrs	r7, r6, #1
 8003594:	f016 0f01 	tst.w	r6, #1
 8003598:	bf18      	it	ne
 800359a:	3701      	addne	r7, #1
 800359c:	02bf      	lsls	r7, r7, #10
 800359e:	e7cb      	b.n	8003538 <USB_EPStartXfer+0x3f8>
 80035a0:	ea4f 1c56 	mov.w	ip, r6, lsr #5
 80035a4:	06f7      	lsls	r7, r6, #27
 80035a6:	4fac      	ldr	r7, [pc, #688]	; (8003858 <USB_EPStartXfer+0x718>)
 80035a8:	bf08      	it	eq
 80035aa:	f10c 3cff 	addeq.w	ip, ip, #4294967295
 80035ae:	ea47 278c 	orr.w	r7, r7, ip, lsl #10
 80035b2:	e7c1      	b.n	8003538 <USB_EPStartXfer+0x3f8>
 80035b4:	2801      	cmp	r0, #1
 80035b6:	d1c1      	bne.n	800353c <USB_EPStartXfer+0x3fc>
 80035b8:	f8b5 0050 	ldrh.w	r0, [r5, #80]	; 0x50
 80035bc:	0112      	lsls	r2, r2, #4
 80035be:	b287      	uxth	r7, r0
 80035c0:	f205 4004 	addw	r0, r5, #1028	; 0x404
 80035c4:	4438      	add	r0, r7
 80035c6:	5283      	strh	r3, [r0, r2]
 80035c8:	e7b8      	b.n	800353c <USB_EPStartXfer+0x3fc>
 80035ca:	0950      	lsrs	r0, r2, #5
 80035cc:	06d2      	lsls	r2, r2, #27
 80035ce:	4aa2      	ldr	r2, [pc, #648]	; (8003858 <USB_EPStartXfer+0x718>)
 80035d0:	bf08      	it	eq
 80035d2:	f100 30ff 	addeq.w	r0, r0, #4294967295
 80035d6:	ea42 2280 	orr.w	r2, r2, r0, lsl #10
 80035da:	b292      	uxth	r2, r2
 80035dc:	53ba      	strh	r2, [r7, r6]
 80035de:	e6e1      	b.n	80033a4 <USB_EPStartXfer+0x264>
 80035e0:	2801      	cmp	r0, #1
 80035e2:	f47f aedf 	bne.w	80033a4 <USB_EPStartXfer+0x264>
 80035e6:	f8b5 2050 	ldrh.w	r2, [r5, #80]	; 0x50
 80035ea:	7820      	ldrb	r0, [r4, #0]
 80035ec:	b296      	uxth	r6, r2
 80035ee:	f205 420c 	addw	r2, r5, #1036	; 0x40c
 80035f2:	0100      	lsls	r0, r0, #4
 80035f4:	4432      	add	r2, r6
 80035f6:	5283      	strh	r3, [r0, r2]
 80035f8:	e6d4      	b.n	80033a4 <USB_EPStartXfer+0x264>
 80035fa:	2a00      	cmp	r2, #0
 80035fc:	d13b      	bne.n	8003676 <USB_EPStartXfer+0x536>
 80035fe:	69a3      	ldr	r3, [r4, #24]
 8003600:	6921      	ldr	r1, [r4, #16]
 8003602:	428b      	cmp	r3, r1
 8003604:	bf84      	itt	hi
 8003606:	1a5a      	subhi	r2, r3, r1
 8003608:	460b      	movhi	r3, r1
 800360a:	f8b0 1050 	ldrh.w	r1, [r0, #80]	; 0x50
 800360e:	7820      	ldrb	r0, [r4, #0]
 8003610:	61a2      	str	r2, [r4, #24]
 8003612:	b28a      	uxth	r2, r1
 8003614:	f205 410c 	addw	r1, r5, #1036	; 0x40c
 8003618:	0100      	lsls	r0, r0, #4
 800361a:	4411      	add	r1, r2
 800361c:	b96b      	cbnz	r3, 800363a <USB_EPStartXfer+0x4fa>
 800361e:	5a43      	ldrh	r3, [r0, r1]
 8003620:	f423 43f8 	bic.w	r3, r3, #31744	; 0x7c00
 8003624:	041b      	lsls	r3, r3, #16
 8003626:	0c1b      	lsrs	r3, r3, #16
 8003628:	5243      	strh	r3, [r0, r1]
 800362a:	5a43      	ldrh	r3, [r0, r1]
 800362c:	ea6f 4343 	mvn.w	r3, r3, lsl #17
 8003630:	ea6f 4353 	mvn.w	r3, r3, lsr #17
 8003634:	b29b      	uxth	r3, r3
 8003636:	5243      	strh	r3, [r0, r1]
 8003638:	e008      	b.n	800364c <USB_EPStartXfer+0x50c>
 800363a:	2b3e      	cmp	r3, #62	; 0x3e
 800363c:	d812      	bhi.n	8003664 <USB_EPStartXfer+0x524>
 800363e:	085a      	lsrs	r2, r3, #1
 8003640:	07df      	lsls	r7, r3, #31
 8003642:	bf48      	it	mi
 8003644:	3201      	addmi	r2, #1
 8003646:	0292      	lsls	r2, r2, #10
 8003648:	b292      	uxth	r2, r2
 800364a:	5242      	strh	r2, [r0, r1]
 800364c:	7822      	ldrb	r2, [r4, #0]
 800364e:	f835 3022 	ldrh.w	r3, [r5, r2, lsl #2]
 8003652:	f423 4380 	bic.w	r3, r3, #16384	; 0x4000
 8003656:	f023 0370 	bic.w	r3, r3, #112	; 0x70
 800365a:	041b      	lsls	r3, r3, #16
 800365c:	0c1b      	lsrs	r3, r3, #16
 800365e:	f483 5340 	eor.w	r3, r3, #12288	; 0x3000
 8003662:	e596      	b.n	8003192 <USB_EPStartXfer+0x52>
 8003664:	095a      	lsrs	r2, r3, #5
 8003666:	06de      	lsls	r6, r3, #27
 8003668:	4b7b      	ldr	r3, [pc, #492]	; (8003858 <USB_EPStartXfer+0x718>)
 800366a:	bf08      	it	eq
 800366c:	f102 32ff 	addeq.w	r2, r2, #4294967295
 8003670:	ea43 2382 	orr.w	r3, r3, r2, lsl #10
 8003674:	e7de      	b.n	8003634 <USB_EPStartXfer+0x4f4>
 8003676:	78e3      	ldrb	r3, [r4, #3]
 8003678:	2b02      	cmp	r3, #2
 800367a:	d17e      	bne.n	800377a <USB_EPStartXfer+0x63a>
 800367c:	b9b9      	cbnz	r1, 80036ae <USB_EPStartXfer+0x56e>
 800367e:	f8b0 2050 	ldrh.w	r2, [r0, #80]	; 0x50
 8003682:	7821      	ldrb	r1, [r4, #0]
 8003684:	b293      	uxth	r3, r2
 8003686:	f200 4204 	addw	r2, r0, #1028	; 0x404
 800368a:	6920      	ldr	r0, [r4, #16]
 800368c:	0109      	lsls	r1, r1, #4
 800368e:	441a      	add	r2, r3
 8003690:	2800      	cmp	r0, #0
 8003692:	d144      	bne.n	800371e <USB_EPStartXfer+0x5de>
 8003694:	5a8b      	ldrh	r3, [r1, r2]
 8003696:	f423 43f8 	bic.w	r3, r3, #31744	; 0x7c00
 800369a:	041b      	lsls	r3, r3, #16
 800369c:	0c1b      	lsrs	r3, r3, #16
 800369e:	528b      	strh	r3, [r1, r2]
 80036a0:	5a8b      	ldrh	r3, [r1, r2]
 80036a2:	ea6f 4343 	mvn.w	r3, r3, lsl #17
 80036a6:	ea6f 4353 	mvn.w	r3, r3, lsr #17
 80036aa:	b29b      	uxth	r3, r3
 80036ac:	528b      	strh	r3, [r1, r2]
 80036ae:	7862      	ldrb	r2, [r4, #1]
 80036b0:	7823      	ldrb	r3, [r4, #0]
 80036b2:	2a00      	cmp	r2, #0
 80036b4:	d155      	bne.n	8003762 <USB_EPStartXfer+0x622>
 80036b6:	f8b5 1050 	ldrh.w	r1, [r5, #80]	; 0x50
 80036ba:	6920      	ldr	r0, [r4, #16]
 80036bc:	b28a      	uxth	r2, r1
 80036be:	f205 410c 	addw	r1, r5, #1036	; 0x40c
 80036c2:	4411      	add	r1, r2
 80036c4:	011b      	lsls	r3, r3, #4
 80036c6:	2800      	cmp	r0, #0
 80036c8:	d13a      	bne.n	8003740 <USB_EPStartXfer+0x600>
 80036ca:	5aca      	ldrh	r2, [r1, r3]
 80036cc:	f422 42f8 	bic.w	r2, r2, #31744	; 0x7c00
 80036d0:	0412      	lsls	r2, r2, #16
 80036d2:	0c12      	lsrs	r2, r2, #16
 80036d4:	52ca      	strh	r2, [r1, r3]
 80036d6:	5aca      	ldrh	r2, [r1, r3]
 80036d8:	ea6f 4242 	mvn.w	r2, r2, lsl #17
 80036dc:	ea6f 4252 	mvn.w	r2, r2, lsr #17
 80036e0:	b292      	uxth	r2, r2
 80036e2:	52ca      	strh	r2, [r1, r3]
 80036e4:	69e3      	ldr	r3, [r4, #28]
 80036e6:	2b00      	cmp	r3, #0
 80036e8:	d0b0      	beq.n	800364c <USB_EPStartXfer+0x50c>
 80036ea:	f244 0340 	movw	r3, #16448	; 0x4040
 80036ee:	7822      	ldrb	r2, [r4, #0]
 80036f0:	f835 1022 	ldrh.w	r1, [r5, r2, lsl #2]
 80036f4:	ea03 0001 	and.w	r0, r3, r1
 80036f8:	438b      	bics	r3, r1
 80036fa:	d001      	beq.n	8003700 <USB_EPStartXfer+0x5c0>
 80036fc:	2800      	cmp	r0, #0
 80036fe:	d1a5      	bne.n	800364c <USB_EPStartXfer+0x50c>
 8003700:	f835 3022 	ldrh.w	r3, [r5, r2, lsl #2]
 8003704:	f423 43e0 	bic.w	r3, r3, #28672	; 0x7000
 8003708:	f023 0370 	bic.w	r3, r3, #112	; 0x70
 800370c:	041b      	lsls	r3, r3, #16
 800370e:	0c1b      	lsrs	r3, r3, #16
 8003710:	f443 4300 	orr.w	r3, r3, #32768	; 0x8000
 8003714:	f043 03c0 	orr.w	r3, r3, #192	; 0xc0
 8003718:	f825 3022 	strh.w	r3, [r5, r2, lsl #2]
 800371c:	e796      	b.n	800364c <USB_EPStartXfer+0x50c>
 800371e:	283e      	cmp	r0, #62	; 0x3e
 8003720:	d805      	bhi.n	800372e <USB_EPStartXfer+0x5ee>
 8003722:	0843      	lsrs	r3, r0, #1
 8003724:	07c0      	lsls	r0, r0, #31
 8003726:	bf48      	it	mi
 8003728:	3301      	addmi	r3, #1
 800372a:	029b      	lsls	r3, r3, #10
 800372c:	e7bd      	b.n	80036aa <USB_EPStartXfer+0x56a>
 800372e:	0946      	lsrs	r6, r0, #5
 8003730:	4b49      	ldr	r3, [pc, #292]	; (8003858 <USB_EPStartXfer+0x718>)
 8003732:	06c7      	lsls	r7, r0, #27
 8003734:	bf08      	it	eq
 8003736:	f106 36ff 	addeq.w	r6, r6, #4294967295
 800373a:	ea43 2386 	orr.w	r3, r3, r6, lsl #10
 800373e:	e7b4      	b.n	80036aa <USB_EPStartXfer+0x56a>
 8003740:	283e      	cmp	r0, #62	; 0x3e
 8003742:	d805      	bhi.n	8003750 <USB_EPStartXfer+0x610>
 8003744:	0842      	lsrs	r2, r0, #1
 8003746:	07c0      	lsls	r0, r0, #31
 8003748:	bf48      	it	mi
 800374a:	3201      	addmi	r2, #1
 800374c:	0292      	lsls	r2, r2, #10
 800374e:	e7c7      	b.n	80036e0 <USB_EPStartXfer+0x5a0>
 8003750:	0946      	lsrs	r6, r0, #5
 8003752:	4a41      	ldr	r2, [pc, #260]	; (8003858 <USB_EPStartXfer+0x718>)
 8003754:	06c7      	lsls	r7, r0, #27
 8003756:	bf08      	it	eq
 8003758:	f106 36ff 	addeq.w	r6, r6, #4294967295
 800375c:	ea42 2286 	orr.w	r2, r2, r6, lsl #10
 8003760:	e7be      	b.n	80036e0 <USB_EPStartXfer+0x5a0>
 8003762:	2a01      	cmp	r2, #1
 8003764:	d1be      	bne.n	80036e4 <USB_EPStartXfer+0x5a4>
 8003766:	f8b5 2050 	ldrh.w	r2, [r5, #80]	; 0x50
 800376a:	011b      	lsls	r3, r3, #4
 800376c:	b291      	uxth	r1, r2
 800376e:	f205 420c 	addw	r2, r5, #1036	; 0x40c
 8003772:	440a      	add	r2, r1
 8003774:	8a21      	ldrh	r1, [r4, #16]
 8003776:	52d1      	strh	r1, [r2, r3]
 8003778:	e7b4      	b.n	80036e4 <USB_EPStartXfer+0x5a4>
 800377a:	2b01      	cmp	r3, #1
 800377c:	d16a      	bne.n	8003854 <USB_EPStartXfer+0x714>
 800377e:	69a3      	ldr	r3, [r4, #24]
 8003780:	6922      	ldr	r2, [r4, #16]
 8003782:	4293      	cmp	r3, r2
 8003784:	bf94      	ite	ls
 8003786:	2000      	movls	r0, #0
 8003788:	1a98      	subhi	r0, r3, r2
 800378a:	61a0      	str	r0, [r4, #24]
 800378c:	bf88      	it	hi
 800378e:	4613      	movhi	r3, r2
 8003790:	b9a9      	cbnz	r1, 80037be <USB_EPStartXfer+0x67e>
 8003792:	f8b5 1050 	ldrh.w	r1, [r5, #80]	; 0x50
 8003796:	7820      	ldrb	r0, [r4, #0]
 8003798:	b28a      	uxth	r2, r1
 800379a:	f205 4104 	addw	r1, r5, #1028	; 0x404
 800379e:	0100      	lsls	r0, r0, #4
 80037a0:	4411      	add	r1, r2
 80037a2:	bb33      	cbnz	r3, 80037f2 <USB_EPStartXfer+0x6b2>
 80037a4:	5a42      	ldrh	r2, [r0, r1]
 80037a6:	f422 42f8 	bic.w	r2, r2, #31744	; 0x7c00
 80037aa:	0412      	lsls	r2, r2, #16
 80037ac:	0c12      	lsrs	r2, r2, #16
 80037ae:	5242      	strh	r2, [r0, r1]
 80037b0:	5a42      	ldrh	r2, [r0, r1]
 80037b2:	ea6f 4242 	mvn.w	r2, r2, lsl #17
 80037b6:	ea6f 4252 	mvn.w	r2, r2, lsr #17
 80037ba:	b292      	uxth	r2, r2
 80037bc:	5242      	strh	r2, [r0, r1]
 80037be:	7861      	ldrb	r1, [r4, #1]
 80037c0:	7822      	ldrb	r2, [r4, #0]
 80037c2:	2900      	cmp	r1, #0
 80037c4:	d139      	bne.n	800383a <USB_EPStartXfer+0x6fa>
 80037c6:	f8b5 0050 	ldrh.w	r0, [r5, #80]	; 0x50
 80037ca:	0112      	lsls	r2, r2, #4
 80037cc:	b281      	uxth	r1, r0
 80037ce:	f205 400c 	addw	r0, r5, #1036	; 0x40c
 80037d2:	4408      	add	r0, r1
 80037d4:	b9f3      	cbnz	r3, 8003814 <USB_EPStartXfer+0x6d4>
 80037d6:	5a83      	ldrh	r3, [r0, r2]
 80037d8:	f423 43f8 	bic.w	r3, r3, #31744	; 0x7c00
 80037dc:	041b      	lsls	r3, r3, #16
 80037de:	0c1b      	lsrs	r3, r3, #16
 80037e0:	5283      	strh	r3, [r0, r2]
 80037e2:	5a83      	ldrh	r3, [r0, r2]
 80037e4:	ea6f 4343 	mvn.w	r3, r3, lsl #17
 80037e8:	ea6f 4353 	mvn.w	r3, r3, lsr #17
 80037ec:	b29b      	uxth	r3, r3
 80037ee:	5283      	strh	r3, [r0, r2]
 80037f0:	e72c      	b.n	800364c <USB_EPStartXfer+0x50c>
 80037f2:	2b3e      	cmp	r3, #62	; 0x3e
 80037f4:	d805      	bhi.n	8003802 <USB_EPStartXfer+0x6c2>
 80037f6:	085a      	lsrs	r2, r3, #1
 80037f8:	07de      	lsls	r6, r3, #31
 80037fa:	bf48      	it	mi
 80037fc:	3201      	addmi	r2, #1
 80037fe:	0292      	lsls	r2, r2, #10
 8003800:	e7db      	b.n	80037ba <USB_EPStartXfer+0x67a>
 8003802:	095e      	lsrs	r6, r3, #5
 8003804:	4a14      	ldr	r2, [pc, #80]	; (8003858 <USB_EPStartXfer+0x718>)
 8003806:	06df      	lsls	r7, r3, #27
 8003808:	bf08      	it	eq
 800380a:	f106 36ff 	addeq.w	r6, r6, #4294967295
 800380e:	ea42 2286 	orr.w	r2, r2, r6, lsl #10
 8003812:	e7d2      	b.n	80037ba <USB_EPStartXfer+0x67a>
 8003814:	2b3e      	cmp	r3, #62	; 0x3e
 8003816:	d807      	bhi.n	8003828 <USB_EPStartXfer+0x6e8>
 8003818:	0859      	lsrs	r1, r3, #1
 800381a:	07de      	lsls	r6, r3, #31
 800381c:	bf48      	it	mi
 800381e:	3101      	addmi	r1, #1
 8003820:	0289      	lsls	r1, r1, #10
 8003822:	b289      	uxth	r1, r1
 8003824:	5281      	strh	r1, [r0, r2]
 8003826:	e711      	b.n	800364c <USB_EPStartXfer+0x50c>
 8003828:	0959      	lsrs	r1, r3, #5
 800382a:	06db      	lsls	r3, r3, #27
 800382c:	4b0a      	ldr	r3, [pc, #40]	; (8003858 <USB_EPStartXfer+0x718>)
 800382e:	bf08      	it	eq
 8003830:	f101 31ff 	addeq.w	r1, r1, #4294967295
 8003834:	ea43 2381 	orr.w	r3, r3, r1, lsl #10
 8003838:	e7d8      	b.n	80037ec <USB_EPStartXfer+0x6ac>
 800383a:	2901      	cmp	r1, #1
 800383c:	f47f af06 	bne.w	800364c <USB_EPStartXfer+0x50c>
 8003840:	f8b5 1050 	ldrh.w	r1, [r5, #80]	; 0x50
 8003844:	0112      	lsls	r2, r2, #4
 8003846:	b288      	uxth	r0, r1
 8003848:	f205 410c 	addw	r1, r5, #1036	; 0x40c
 800384c:	4401      	add	r1, r0
 800384e:	b29b      	uxth	r3, r3
 8003850:	528b      	strh	r3, [r1, r2]
 8003852:	e6fb      	b.n	800364c <USB_EPStartXfer+0x50c>
 8003854:	2001      	movs	r0, #1
 8003856:	e4a3      	b.n	80031a0 <USB_EPStartXfer+0x60>
 8003858:	ffff8000 	.word	0xffff8000

0800385c <USB_ReadPMA>:
 800385c:	eb00 0242 	add.w	r2, r0, r2, lsl #1
 8003860:	b5f0      	push	{r4, r5, r6, r7, lr}
 8003862:	f502 6280 	add.w	r2, r2, #1024	; 0x400
 8003866:	085d      	lsrs	r5, r3, #1
 8003868:	460c      	mov	r4, r1
 800386a:	4617      	mov	r7, r2
 800386c:	462e      	mov	r6, r5
 800386e:	3402      	adds	r4, #2
 8003870:	b936      	cbnz	r6, 8003880 <USB_ReadPMA+0x24>
 8003872:	07db      	lsls	r3, r3, #31
 8003874:	bf44      	itt	mi
 8003876:	f832 3025 	ldrhmi.w	r3, [r2, r5, lsl #2]
 800387a:	f801 3015 	strbmi.w	r3, [r1, r5, lsl #1]
 800387e:	bdf0      	pop	{r4, r5, r6, r7, pc}
 8003880:	f837 0b04 	ldrh.w	r0, [r7], #4
 8003884:	3e01      	subs	r6, #1
 8003886:	b280      	uxth	r0, r0
 8003888:	f804 0c02 	strb.w	r0, [r4, #-2]
 800388c:	0a00      	lsrs	r0, r0, #8
 800388e:	f804 0c01 	strb.w	r0, [r4, #-1]
 8003892:	e7ec      	b.n	800386e <USB_ReadPMA+0x12>

08003894 <USBD_CDC_EP0_RxReady>:
 8003894:	f8d0 32bc 	ldr.w	r3, [r0, #700]	; 0x2bc
 8003898:	b510      	push	{r4, lr}
 800389a:	b16b      	cbz	r3, 80038b8 <USBD_CDC_EP0_RxReady+0x24>
 800389c:	f8d0 42b8 	ldr.w	r4, [r0, #696]	; 0x2b8
 80038a0:	f894 0200 	ldrb.w	r0, [r4, #512]	; 0x200
 80038a4:	28ff      	cmp	r0, #255	; 0xff
 80038a6:	d007      	beq.n	80038b8 <USBD_CDC_EP0_RxReady+0x24>
 80038a8:	689b      	ldr	r3, [r3, #8]
 80038aa:	4621      	mov	r1, r4
 80038ac:	f894 2201 	ldrb.w	r2, [r4, #513]	; 0x201
 80038b0:	4798      	blx	r3
 80038b2:	23ff      	movs	r3, #255	; 0xff
 80038b4:	f884 3200 	strb.w	r3, [r4, #512]	; 0x200
 80038b8:	2000      	movs	r0, #0
 80038ba:	bd10      	pop	{r4, pc}

080038bc <USBD_CDC_GetFSCfgDesc>:
 80038bc:	2343      	movs	r3, #67	; 0x43
 80038be:	8003      	strh	r3, [r0, #0]
 80038c0:	4800      	ldr	r0, [pc, #0]	; (80038c4 <USBD_CDC_GetFSCfgDesc+0x8>)
 80038c2:	4770      	bx	lr
 80038c4:	20000048 	.word	0x20000048

080038c8 <USBD_CDC_GetHSCfgDesc>:
 80038c8:	2343      	movs	r3, #67	; 0x43
 80038ca:	8003      	strh	r3, [r0, #0]
 80038cc:	4800      	ldr	r0, [pc, #0]	; (80038d0 <USBD_CDC_GetHSCfgDesc+0x8>)
 80038ce:	4770      	bx	lr
 80038d0:	2000008c 	.word	0x2000008c

080038d4 <USBD_CDC_GetOtherSpeedCfgDesc>:
 80038d4:	2343      	movs	r3, #67	; 0x43
 80038d6:	8003      	strh	r3, [r0, #0]
 80038d8:	4800      	ldr	r0, [pc, #0]	; (80038dc <USBD_CDC_GetOtherSpeedCfgDesc+0x8>)
 80038da:	4770      	bx	lr
 80038dc:	200000dc 	.word	0x200000dc

080038e0 <USBD_CDC_GetDeviceQualifierDescriptor>:
 80038e0:	230a      	movs	r3, #10
 80038e2:	8003      	strh	r3, [r0, #0]
 80038e4:	4800      	ldr	r0, [pc, #0]	; (80038e8 <USBD_CDC_GetDeviceQualifierDescriptor+0x8>)
 80038e6:	4770      	bx	lr
 80038e8:	200000d0 	.word	0x200000d0

080038ec <USBD_CDC_DataOut>:
 80038ec:	b538      	push	{r3, r4, r5, lr}
 80038ee:	4604      	mov	r4, r0
 80038f0:	f8d0 52b8 	ldr.w	r5, [r0, #696]	; 0x2b8
 80038f4:	f000 ff4c 	bl	8004790 <USBD_LL_GetRxDataSize>
 80038f8:	f8d4 32b8 	ldr.w	r3, [r4, #696]	; 0x2b8
 80038fc:	f8c5 020c 	str.w	r0, [r5, #524]	; 0x20c
 8003900:	b14b      	cbz	r3, 8003916 <USBD_CDC_DataOut+0x2a>
 8003902:	f8d4 32bc 	ldr.w	r3, [r4, #700]	; 0x2bc
 8003906:	f8d5 0204 	ldr.w	r0, [r5, #516]	; 0x204
 800390a:	68db      	ldr	r3, [r3, #12]
 800390c:	f505 7103 	add.w	r1, r5, #524	; 0x20c
 8003910:	4798      	blx	r3
 8003912:	2000      	movs	r0, #0
 8003914:	bd38      	pop	{r3, r4, r5, pc}
 8003916:	2002      	movs	r0, #2
 8003918:	e7fc      	b.n	8003914 <USBD_CDC_DataOut+0x28>

0800391a <USBD_CDC_DataIn>:
 800391a:	f8d0 22b8 	ldr.w	r2, [r0, #696]	; 0x2b8
 800391e:	b5f8      	push	{r3, r4, r5, r6, r7, lr}
 8003920:	b1d2      	cbz	r2, 8003958 <USBD_CDC_DataIn+0x3e>
 8003922:	2714      	movs	r7, #20
 8003924:	fb07 0701 	mla	r7, r7, r1, r0
 8003928:	69fb      	ldr	r3, [r7, #28]
 800392a:	b18b      	cbz	r3, 8003950 <USBD_CDC_DataIn+0x36>
 800392c:	2628      	movs	r6, #40	; 0x28
 800392e:	f8d0 42c0 	ldr.w	r4, [r0, #704]	; 0x2c0
 8003932:	fb06 4501 	mla	r5, r6, r1, r4
 8003936:	6bad      	ldr	r5, [r5, #56]	; 0x38
 8003938:	fbb3 f4f5 	udiv	r4, r3, r5
 800393c:	fb05 3414 	mls	r4, r5, r4, r3
 8003940:	b934      	cbnz	r4, 8003950 <USBD_CDC_DataIn+0x36>
 8003942:	4623      	mov	r3, r4
 8003944:	4622      	mov	r2, r4
 8003946:	61fc      	str	r4, [r7, #28]
 8003948:	f000 ff06 	bl	8004758 <USBD_LL_Transmit>
 800394c:	4620      	mov	r0, r4
 800394e:	bdf8      	pop	{r3, r4, r5, r6, r7, pc}
 8003950:	2000      	movs	r0, #0
 8003952:	f8c2 0214 	str.w	r0, [r2, #532]	; 0x214
 8003956:	e7fa      	b.n	800394e <USBD_CDC_DataIn+0x34>
 8003958:	2002      	movs	r0, #2
 800395a:	e7f8      	b.n	800394e <USBD_CDC_DataIn+0x34>

0800395c <USBD_CDC_Setup>:
 800395c:	e92d 43f7 	stmdb	sp!, {r0, r1, r2, r4, r5, r6, r7, r8, r9, lr}
 8003960:	f04f 0800 	mov.w	r8, #0
 8003964:	780a      	ldrb	r2, [r1, #0]
 8003966:	4605      	mov	r5, r0
 8003968:	f012 0460 	ands.w	r4, r2, #96	; 0x60
 800396c:	460e      	mov	r6, r1
 800396e:	f8d0 72b8 	ldr.w	r7, [r0, #696]	; 0x2b8
 8003972:	f88d 8005 	strb.w	r8, [sp, #5]
 8003976:	f8ad 8006 	strh.w	r8, [sp, #6]
 800397a:	d028      	beq.n	80039ce <USBD_CDC_Setup+0x72>
 800397c:	2c20      	cmp	r4, #32
 800397e:	d142      	bne.n	8003a06 <USBD_CDC_Setup+0xaa>
 8003980:	88cc      	ldrh	r4, [r1, #6]
 8003982:	784b      	ldrb	r3, [r1, #1]
 8003984:	b1e4      	cbz	r4, 80039c0 <USBD_CDC_Setup+0x64>
 8003986:	0612      	lsls	r2, r2, #24
 8003988:	d511      	bpl.n	80039ae <USBD_CDC_Setup+0x52>
 800398a:	f8d0 22bc 	ldr.w	r2, [r0, #700]	; 0x2bc
 800398e:	4639      	mov	r1, r7
 8003990:	f8d2 9008 	ldr.w	r9, [r2, #8]
 8003994:	4618      	mov	r0, r3
 8003996:	4622      	mov	r2, r4
 8003998:	47c8      	blx	r9
 800399a:	4639      	mov	r1, r7
 800399c:	4628      	mov	r0, r5
 800399e:	88f2      	ldrh	r2, [r6, #6]
 80039a0:	f000 fc69 	bl	8004276 <USBD_CtlSendData>
 80039a4:	4644      	mov	r4, r8
 80039a6:	4620      	mov	r0, r4
 80039a8:	b003      	add	sp, #12
 80039aa:	e8bd 83f0 	ldmia.w	sp!, {r4, r5, r6, r7, r8, r9, pc}
 80039ae:	4622      	mov	r2, r4
 80039b0:	4639      	mov	r1, r7
 80039b2:	f887 3200 	strb.w	r3, [r7, #512]	; 0x200
 80039b6:	f887 4201 	strb.w	r4, [r7, #513]	; 0x201
 80039ba:	f000 fc71 	bl	80042a0 <USBD_CtlPrepareRx>
 80039be:	e7f1      	b.n	80039a4 <USBD_CDC_Setup+0x48>
 80039c0:	f8d0 22bc 	ldr.w	r2, [r0, #700]	; 0x2bc
 80039c4:	4618      	mov	r0, r3
 80039c6:	6895      	ldr	r5, [r2, #8]
 80039c8:	4622      	mov	r2, r4
 80039ca:	47a8      	blx	r5
 80039cc:	e7eb      	b.n	80039a6 <USBD_CDC_Setup+0x4a>
 80039ce:	784b      	ldrb	r3, [r1, #1]
 80039d0:	2b0a      	cmp	r3, #10
 80039d2:	d00c      	beq.n	80039ee <USBD_CDC_Setup+0x92>
 80039d4:	2b0b      	cmp	r3, #11
 80039d6:	d012      	beq.n	80039fe <USBD_CDC_Setup+0xa2>
 80039d8:	b9ab      	cbnz	r3, 8003a06 <USBD_CDC_Setup+0xaa>
 80039da:	f890 329c 	ldrb.w	r3, [r0, #668]	; 0x29c
 80039de:	2b03      	cmp	r3, #3
 80039e0:	d111      	bne.n	8003a06 <USBD_CDC_Setup+0xaa>
 80039e2:	2202      	movs	r2, #2
 80039e4:	f10d 0106 	add.w	r1, sp, #6
 80039e8:	f000 fc45 	bl	8004276 <USBD_CtlSendData>
 80039ec:	e7db      	b.n	80039a6 <USBD_CDC_Setup+0x4a>
 80039ee:	f890 329c 	ldrb.w	r3, [r0, #668]	; 0x29c
 80039f2:	2b03      	cmp	r3, #3
 80039f4:	d107      	bne.n	8003a06 <USBD_CDC_Setup+0xaa>
 80039f6:	2201      	movs	r2, #1
 80039f8:	f10d 0105 	add.w	r1, sp, #5
 80039fc:	e7f4      	b.n	80039e8 <USBD_CDC_Setup+0x8c>
 80039fe:	f890 329c 	ldrb.w	r3, [r0, #668]	; 0x29c
 8003a02:	2b03      	cmp	r3, #3
 8003a04:	d0cf      	beq.n	80039a6 <USBD_CDC_Setup+0x4a>
 8003a06:	4631      	mov	r1, r6
 8003a08:	4628      	mov	r0, r5
 8003a0a:	f000 fc0d 	bl	8004228 <USBD_CtlError>
 8003a0e:	2402      	movs	r4, #2
 8003a10:	e7c9      	b.n	80039a6 <USBD_CDC_Setup+0x4a>

08003a12 <USBD_CDC_DeInit>:
 8003a12:	b538      	push	{r3, r4, r5, lr}
 8003a14:	4604      	mov	r4, r0
 8003a16:	2500      	movs	r5, #0
 8003a18:	2181      	movs	r1, #129	; 0x81
 8003a1a:	f000 fe53 	bl	80046c4 <USBD_LL_CloseEP>
 8003a1e:	2101      	movs	r1, #1
 8003a20:	4620      	mov	r0, r4
 8003a22:	62e5      	str	r5, [r4, #44]	; 0x2c
 8003a24:	f000 fe4e 	bl	80046c4 <USBD_LL_CloseEP>
 8003a28:	2182      	movs	r1, #130	; 0x82
 8003a2a:	4620      	mov	r0, r4
 8003a2c:	f8c4 516c 	str.w	r5, [r4, #364]	; 0x16c
 8003a30:	f000 fe48 	bl	80046c4 <USBD_LL_CloseEP>
 8003a34:	f8d4 32b8 	ldr.w	r3, [r4, #696]	; 0x2b8
 8003a38:	6425      	str	r5, [r4, #64]	; 0x40
 8003a3a:	b14b      	cbz	r3, 8003a50 <USBD_CDC_DeInit+0x3e>
 8003a3c:	f8d4 32bc 	ldr.w	r3, [r4, #700]	; 0x2bc
 8003a40:	685b      	ldr	r3, [r3, #4]
 8003a42:	4798      	blx	r3
 8003a44:	f8d4 02b8 	ldr.w	r0, [r4, #696]	; 0x2b8
 8003a48:	f000 feaa 	bl	80047a0 <USBD_static_free>
 8003a4c:	f8c4 52b8 	str.w	r5, [r4, #696]	; 0x2b8
 8003a50:	2000      	movs	r0, #0
 8003a52:	bd38      	pop	{r3, r4, r5, pc}

08003a54 <USBD_CDC_Init>:
 8003a54:	e92d 41f0 	stmdb	sp!, {r4, r5, r6, r7, r8, lr}
 8003a58:	7c03      	ldrb	r3, [r0, #16]
 8003a5a:	4604      	mov	r4, r0
 8003a5c:	bbbb      	cbnz	r3, 8003ace <USBD_CDC_Init+0x7a>
 8003a5e:	f44f 7300 	mov.w	r3, #512	; 0x200
 8003a62:	2202      	movs	r2, #2
 8003a64:	2181      	movs	r1, #129	; 0x81
 8003a66:	2501      	movs	r5, #1
 8003a68:	f000 fe1c 	bl	80046a4 <USBD_LL_OpenEP>
 8003a6c:	f44f 7300 	mov.w	r3, #512	; 0x200
 8003a70:	62e5      	str	r5, [r4, #44]	; 0x2c
 8003a72:	2701      	movs	r7, #1
 8003a74:	4629      	mov	r1, r5
 8003a76:	2202      	movs	r2, #2
 8003a78:	4620      	mov	r0, r4
 8003a7a:	f000 fe13 	bl	80046a4 <USBD_LL_OpenEP>
 8003a7e:	2308      	movs	r3, #8
 8003a80:	2203      	movs	r2, #3
 8003a82:	2182      	movs	r1, #130	; 0x82
 8003a84:	f8c4 516c 	str.w	r5, [r4, #364]	; 0x16c
 8003a88:	4620      	mov	r0, r4
 8003a8a:	f000 fe0b 	bl	80046a4 <USBD_LL_OpenEP>
 8003a8e:	f44f 7007 	mov.w	r0, #540	; 0x21c
 8003a92:	6427      	str	r7, [r4, #64]	; 0x40
 8003a94:	f000 fe80 	bl	8004798 <USBD_static_malloc>
 8003a98:	4605      	mov	r5, r0
 8003a9a:	f8c4 02b8 	str.w	r0, [r4, #696]	; 0x2b8
 8003a9e:	b340      	cbz	r0, 8003af2 <USBD_CDC_Init+0x9e>
 8003aa0:	f04f 0800 	mov.w	r8, #0
 8003aa4:	f8d4 32bc 	ldr.w	r3, [r4, #700]	; 0x2bc
 8003aa8:	681b      	ldr	r3, [r3, #0]
 8003aaa:	4798      	blx	r3
 8003aac:	f8c5 8214 	str.w	r8, [r5, #532]	; 0x214
 8003ab0:	f8c5 8218 	str.w	r8, [r5, #536]	; 0x218
 8003ab4:	7c26      	ldrb	r6, [r4, #16]
 8003ab6:	b99e      	cbnz	r6, 8003ae0 <USBD_CDC_Init+0x8c>
 8003ab8:	f44f 7300 	mov.w	r3, #512	; 0x200
 8003abc:	4639      	mov	r1, r7
 8003abe:	4620      	mov	r0, r4
 8003ac0:	f8d5 2204 	ldr.w	r2, [r5, #516]	; 0x204
 8003ac4:	f000 fe56 	bl	8004774 <USBD_LL_PrepareReceive>
 8003ac8:	4630      	mov	r0, r6
 8003aca:	e8bd 81f0 	ldmia.w	sp!, {r4, r5, r6, r7, r8, pc}
 8003ace:	2501      	movs	r5, #1
 8003ad0:	2340      	movs	r3, #64	; 0x40
 8003ad2:	2202      	movs	r2, #2
 8003ad4:	2181      	movs	r1, #129	; 0x81
 8003ad6:	f000 fde5 	bl	80046a4 <USBD_LL_OpenEP>
 8003ada:	2340      	movs	r3, #64	; 0x40
 8003adc:	62e5      	str	r5, [r4, #44]	; 0x2c
 8003ade:	e7c8      	b.n	8003a72 <USBD_CDC_Init+0x1e>
 8003ae0:	2340      	movs	r3, #64	; 0x40
 8003ae2:	4639      	mov	r1, r7
 8003ae4:	4620      	mov	r0, r4
 8003ae6:	f8d5 2204 	ldr.w	r2, [r5, #516]	; 0x204
 8003aea:	f000 fe43 	bl	8004774 <USBD_LL_PrepareReceive>
 8003aee:	4646      	mov	r6, r8
 8003af0:	e7ea      	b.n	8003ac8 <USBD_CDC_Init+0x74>
 8003af2:	463e      	mov	r6, r7
 8003af4:	e7e8      	b.n	8003ac8 <USBD_CDC_Init+0x74>

08003af6 <USBD_CDC_RegisterInterface>:
 8003af6:	b119      	cbz	r1, 8003b00 <USBD_CDC_RegisterInterface+0xa>
 8003af8:	f8c0 12bc 	str.w	r1, [r0, #700]	; 0x2bc
 8003afc:	2000      	movs	r0, #0
 8003afe:	4770      	bx	lr
 8003b00:	2002      	movs	r0, #2
 8003b02:	4770      	bx	lr

08003b04 <USBD_CDC_SetTxBuffer>:
 8003b04:	f8d0 32b8 	ldr.w	r3, [r0, #696]	; 0x2b8
 8003b08:	2000      	movs	r0, #0
 8003b0a:	f8c3 1208 	str.w	r1, [r3, #520]	; 0x208
 8003b0e:	f8c3 2210 	str.w	r2, [r3, #528]	; 0x210
 8003b12:	4770      	bx	lr

08003b14 <USBD_CDC_SetRxBuffer>:
 8003b14:	f8d0 32b8 	ldr.w	r3, [r0, #696]	; 0x2b8
 8003b18:	2000      	movs	r0, #0
 8003b1a:	f8c3 1204 	str.w	r1, [r3, #516]	; 0x204
 8003b1e:	4770      	bx	lr

08003b20 <USBD_CDC_TransmitPacket>:
 8003b20:	f8d0 22b8 	ldr.w	r2, [r0, #696]	; 0x2b8
 8003b24:	b510      	push	{r4, lr}
 8003b26:	b182      	cbz	r2, 8003b4a <USBD_CDC_TransmitPacket+0x2a>
 8003b28:	f8d2 4214 	ldr.w	r4, [r2, #532]	; 0x214
 8003b2c:	2301      	movs	r3, #1
 8003b2e:	b974      	cbnz	r4, 8003b4e <USBD_CDC_TransmitPacket+0x2e>
 8003b30:	f8c2 3214 	str.w	r3, [r2, #532]	; 0x214
 8003b34:	f8d2 3210 	ldr.w	r3, [r2, #528]	; 0x210
 8003b38:	2181      	movs	r1, #129	; 0x81
 8003b3a:	6303      	str	r3, [r0, #48]	; 0x30
 8003b3c:	f8d2 2208 	ldr.w	r2, [r2, #520]	; 0x208
 8003b40:	b29b      	uxth	r3, r3
 8003b42:	f000 fe09 	bl	8004758 <USBD_LL_Transmit>
 8003b46:	4620      	mov	r0, r4
 8003b48:	bd10      	pop	{r4, pc}
 8003b4a:	2002      	movs	r0, #2
 8003b4c:	e7fc      	b.n	8003b48 <USBD_CDC_TransmitPacket+0x28>
 8003b4e:	4618      	mov	r0, r3
 8003b50:	e7fa      	b.n	8003b48 <USBD_CDC_TransmitPacket+0x28>

08003b52 <USBD_CDC_ReceivePacket>:
 8003b52:	f8d0 22b8 	ldr.w	r2, [r0, #696]	; 0x2b8
 8003b56:	b510      	push	{r4, lr}
 8003b58:	b182      	cbz	r2, 8003b7c <USBD_CDC_ReceivePacket+0x2a>
 8003b5a:	7c04      	ldrb	r4, [r0, #16]
 8003b5c:	f8d2 2204 	ldr.w	r2, [r2, #516]	; 0x204
 8003b60:	b934      	cbnz	r4, 8003b70 <USBD_CDC_ReceivePacket+0x1e>
 8003b62:	f44f 7300 	mov.w	r3, #512	; 0x200
 8003b66:	2101      	movs	r1, #1
 8003b68:	f000 fe04 	bl	8004774 <USBD_LL_PrepareReceive>
 8003b6c:	4620      	mov	r0, r4
 8003b6e:	bd10      	pop	{r4, pc}
 8003b70:	2340      	movs	r3, #64	; 0x40
 8003b72:	2101      	movs	r1, #1
 8003b74:	f000 fdfe 	bl	8004774 <USBD_LL_PrepareReceive>
 8003b78:	2400      	movs	r4, #0
 8003b7a:	e7f7      	b.n	8003b6c <USBD_CDC_ReceivePacket+0x1a>
 8003b7c:	2402      	movs	r4, #2
 8003b7e:	e7f5      	b.n	8003b6c <USBD_CDC_ReceivePacket+0x1a>

08003b80 <USBD_Init>:
 8003b80:	b508      	push	{r3, lr}
 8003b82:	b180      	cbz	r0, 8003ba6 <USBD_Init+0x26>
 8003b84:	f8d0 32b4 	ldr.w	r3, [r0, #692]	; 0x2b4
 8003b88:	b113      	cbz	r3, 8003b90 <USBD_Init+0x10>
 8003b8a:	2300      	movs	r3, #0
 8003b8c:	f8c0 32b4 	str.w	r3, [r0, #692]	; 0x2b4
 8003b90:	b109      	cbz	r1, 8003b96 <USBD_Init+0x16>
 8003b92:	f8c0 12b0 	str.w	r1, [r0, #688]	; 0x2b0
 8003b96:	2301      	movs	r3, #1
 8003b98:	7002      	strb	r2, [r0, #0]
 8003b9a:	f880 329c 	strb.w	r3, [r0, #668]	; 0x29c
 8003b9e:	f000 fd15 	bl	80045cc <USBD_LL_Init>
 8003ba2:	2000      	movs	r0, #0
 8003ba4:	bd08      	pop	{r3, pc}
 8003ba6:	2002      	movs	r0, #2
 8003ba8:	e7fc      	b.n	8003ba4 <USBD_Init+0x24>

08003baa <USBD_DeInit>:
 8003baa:	2301      	movs	r3, #1
 8003bac:	b510      	push	{r4, lr}
 8003bae:	4604      	mov	r4, r0
 8003bb0:	f880 329c 	strb.w	r3, [r0, #668]	; 0x29c
 8003bb4:	f8d0 32b4 	ldr.w	r3, [r0, #692]	; 0x2b4
 8003bb8:	7901      	ldrb	r1, [r0, #4]
 8003bba:	685b      	ldr	r3, [r3, #4]
 8003bbc:	4798      	blx	r3
 8003bbe:	4620      	mov	r0, r4
 8003bc0:	f000 fd62 	bl	8004688 <USBD_LL_Stop>
 8003bc4:	4620      	mov	r0, r4
 8003bc6:	f000 fd43 	bl	8004650 <USBD_LL_DeInit>
 8003bca:	2000      	movs	r0, #0
 8003bcc:	bd10      	pop	{r4, pc}

08003bce <USBD_RegisterClass>:
 8003bce:	b119      	cbz	r1, 8003bd8 <USBD_RegisterClass+0xa>
 8003bd0:	f8c0 12b4 	str.w	r1, [r0, #692]	; 0x2b4
 8003bd4:	2000      	movs	r0, #0
 8003bd6:	4770      	bx	lr
 8003bd8:	2002      	movs	r0, #2
 8003bda:	4770      	bx	lr

08003bdc <USBD_Start>:
 8003bdc:	b508      	push	{r3, lr}
 8003bde:	f000 fd45 	bl	800466c <USBD_LL_Start>
 8003be2:	2000      	movs	r0, #0
 8003be4:	bd08      	pop	{r3, pc}

08003be6 <USBD_Stop>:
 8003be6:	b510      	push	{r4, lr}
 8003be8:	4604      	mov	r4, r0
 8003bea:	f8d0 32b4 	ldr.w	r3, [r0, #692]	; 0x2b4
 8003bee:	7901      	ldrb	r1, [r0, #4]
 8003bf0:	685b      	ldr	r3, [r3, #4]
 8003bf2:	4798      	blx	r3
 8003bf4:	4620      	mov	r0, r4
 8003bf6:	f000 fd47 	bl	8004688 <USBD_LL_Stop>
 8003bfa:	2000      	movs	r0, #0
 8003bfc:	bd10      	pop	{r4, pc}

08003bfe <USBD_SetClassConfig>:
 8003bfe:	b508      	push	{r3, lr}
 8003c00:	f8d0 32b4 	ldr.w	r3, [r0, #692]	; 0x2b4
 8003c04:	b90b      	cbnz	r3, 8003c0a <USBD_SetClassConfig+0xc>
 8003c06:	2002      	movs	r0, #2
 8003c08:	bd08      	pop	{r3, pc}
 8003c0a:	681b      	ldr	r3, [r3, #0]
 8003c0c:	4798      	blx	r3
 8003c0e:	2800      	cmp	r0, #0
 8003c10:	d0fa      	beq.n	8003c08 <USBD_SetClassConfig+0xa>
 8003c12:	e7f8      	b.n	8003c06 <USBD_SetClassConfig+0x8>

08003c14 <USBD_ClrClassConfig>:
 8003c14:	b508      	push	{r3, lr}
 8003c16:	f8d0 32b4 	ldr.w	r3, [r0, #692]	; 0x2b4
 8003c1a:	685b      	ldr	r3, [r3, #4]
 8003c1c:	4798      	blx	r3
 8003c1e:	2000      	movs	r0, #0
 8003c20:	bd08      	pop	{r3, pc}

08003c22 <USBD_LL_SetupStage>:
 8003c22:	b538      	push	{r3, r4, r5, lr}
 8003c24:	f500 752a 	add.w	r5, r0, #680	; 0x2a8
 8003c28:	4604      	mov	r4, r0
 8003c2a:	4628      	mov	r0, r5
 8003c2c:	f000 fae8 	bl	8004200 <USBD_ParseSetupRequest>
 8003c30:	2301      	movs	r3, #1
 8003c32:	f894 12a8 	ldrb.w	r1, [r4, #680]	; 0x2a8
 8003c36:	f8c4 3294 	str.w	r3, [r4, #660]	; 0x294
 8003c3a:	f8b4 32ae 	ldrh.w	r3, [r4, #686]	; 0x2ae
 8003c3e:	f8c4 3298 	str.w	r3, [r4, #664]	; 0x298
 8003c42:	f001 031f 	and.w	r3, r1, #31
 8003c46:	2b01      	cmp	r3, #1
 8003c48:	d008      	beq.n	8003c5c <USBD_LL_SetupStage+0x3a>
 8003c4a:	2b02      	cmp	r3, #2
 8003c4c:	d00b      	beq.n	8003c66 <USBD_LL_SetupStage+0x44>
 8003c4e:	b97b      	cbnz	r3, 8003c70 <USBD_LL_SetupStage+0x4e>
 8003c50:	4629      	mov	r1, r5
 8003c52:	4620      	mov	r0, r4
 8003c54:	f000 f8fc 	bl	8003e50 <USBD_StdDevReq>
 8003c58:	2000      	movs	r0, #0
 8003c5a:	bd38      	pop	{r3, r4, r5, pc}
 8003c5c:	4629      	mov	r1, r5
 8003c5e:	4620      	mov	r0, r4
 8003c60:	f000 fa20 	bl	80040a4 <USBD_StdItfReq>
 8003c64:	e7f8      	b.n	8003c58 <USBD_LL_SetupStage+0x36>
 8003c66:	4629      	mov	r1, r5
 8003c68:	4620      	mov	r0, r4
 8003c6a:	f000 fa3f 	bl	80040ec <USBD_StdEPReq>
 8003c6e:	e7f3      	b.n	8003c58 <USBD_LL_SetupStage+0x36>
 8003c70:	4620      	mov	r0, r4
 8003c72:	f001 0180 	and.w	r1, r1, #128	; 0x80
 8003c76:	f000 fd33 	bl	80046e0 <USBD_LL_StallEP>
 8003c7a:	e7ed      	b.n	8003c58 <USBD_LL_SetupStage+0x36>

08003c7c <USBD_LL_DataOutStage>:
 8003c7c:	b570      	push	{r4, r5, r6, lr}
 8003c7e:	4604      	mov	r4, r0
 8003c80:	4616      	mov	r6, r2
 8003c82:	460d      	mov	r5, r1
 8003c84:	bb39      	cbnz	r1, 8003cd6 <USBD_LL_DataOutStage+0x5a>
 8003c86:	f8d0 3294 	ldr.w	r3, [r0, #660]	; 0x294
 8003c8a:	2b03      	cmp	r3, #3
 8003c8c:	d11c      	bne.n	8003cc8 <USBD_LL_DataOutStage+0x4c>
 8003c8e:	e9d0 1258 	ldrd	r1, r2, [r0, #352]	; 0x160
 8003c92:	4291      	cmp	r1, r2
 8003c94:	d90b      	bls.n	8003cae <USBD_LL_DataOutStage+0x32>
 8003c96:	1a89      	subs	r1, r1, r2
 8003c98:	428a      	cmp	r2, r1
 8003c9a:	f8c0 1160 	str.w	r1, [r0, #352]	; 0x160
 8003c9e:	bf8c      	ite	hi
 8003ca0:	b28a      	uxthhi	r2, r1
 8003ca2:	b292      	uxthls	r2, r2
 8003ca4:	4631      	mov	r1, r6
 8003ca6:	f000 fb08 	bl	80042ba <USBD_CtlContinueRx>
 8003caa:	4628      	mov	r0, r5
 8003cac:	bd70      	pop	{r4, r5, r6, pc}
 8003cae:	f8d0 32b4 	ldr.w	r3, [r0, #692]	; 0x2b4
 8003cb2:	691b      	ldr	r3, [r3, #16]
 8003cb4:	b123      	cbz	r3, 8003cc0 <USBD_LL_DataOutStage+0x44>
 8003cb6:	f890 229c 	ldrb.w	r2, [r0, #668]	; 0x29c
 8003cba:	2a03      	cmp	r2, #3
 8003cbc:	d100      	bne.n	8003cc0 <USBD_LL_DataOutStage+0x44>
 8003cbe:	4798      	blx	r3
 8003cc0:	4620      	mov	r0, r4
 8003cc2:	f000 fb02 	bl	80042ca <USBD_CtlSendStatus>
 8003cc6:	e7f0      	b.n	8003caa <USBD_LL_DataOutStage+0x2e>
 8003cc8:	2b05      	cmp	r3, #5
 8003cca:	d1ee      	bne.n	8003caa <USBD_LL_DataOutStage+0x2e>
 8003ccc:	f8c4 1294 	str.w	r1, [r4, #660]	; 0x294
 8003cd0:	f000 fd06 	bl	80046e0 <USBD_LL_StallEP>
 8003cd4:	e7e9      	b.n	8003caa <USBD_LL_DataOutStage+0x2e>
 8003cd6:	f8d0 32b4 	ldr.w	r3, [r0, #692]	; 0x2b4
 8003cda:	699b      	ldr	r3, [r3, #24]
 8003cdc:	b133      	cbz	r3, 8003cec <USBD_LL_DataOutStage+0x70>
 8003cde:	f890 229c 	ldrb.w	r2, [r0, #668]	; 0x29c
 8003ce2:	2a03      	cmp	r2, #3
 8003ce4:	d102      	bne.n	8003cec <USBD_LL_DataOutStage+0x70>
 8003ce6:	4798      	blx	r3
 8003ce8:	2500      	movs	r5, #0
 8003cea:	e7de      	b.n	8003caa <USBD_LL_DataOutStage+0x2e>
 8003cec:	2502      	movs	r5, #2
 8003cee:	e7dc      	b.n	8003caa <USBD_LL_DataOutStage+0x2e>

08003cf0 <USBD_LL_DataInStage>:
 8003cf0:	b5f8      	push	{r3, r4, r5, r6, r7, lr}
 8003cf2:	4604      	mov	r4, r0
 8003cf4:	4617      	mov	r7, r2
 8003cf6:	460d      	mov	r5, r1
 8003cf8:	2900      	cmp	r1, #0
 8003cfa:	d147      	bne.n	8003d8c <USBD_LL_DataInStage+0x9c>
 8003cfc:	f8d0 3294 	ldr.w	r3, [r0, #660]	; 0x294
 8003d00:	2b02      	cmp	r3, #2
 8003d02:	d13c      	bne.n	8003d7e <USBD_LL_DataInStage+0x8e>
 8003d04:	e9d0 6308 	ldrd	r6, r3, [r0, #32]
 8003d08:	429e      	cmp	r6, r3
 8003d0a:	d914      	bls.n	8003d36 <USBD_LL_DataInStage+0x46>
 8003d0c:	1af3      	subs	r3, r6, r3
 8003d0e:	4639      	mov	r1, r7
 8003d10:	6203      	str	r3, [r0, #32]
 8003d12:	b29a      	uxth	r2, r3
 8003d14:	f000 fabc 	bl	8004290 <USBD_CtlContinueSendData>
 8003d18:	462b      	mov	r3, r5
 8003d1a:	462a      	mov	r2, r5
 8003d1c:	4629      	mov	r1, r5
 8003d1e:	4620      	mov	r0, r4
 8003d20:	f000 fd28 	bl	8004774 <USBD_LL_PrepareReceive>
 8003d24:	f894 32a0 	ldrb.w	r3, [r4, #672]	; 0x2a0
 8003d28:	2b01      	cmp	r3, #1
 8003d2a:	d102      	bne.n	8003d32 <USBD_LL_DataInStage+0x42>
 8003d2c:	2300      	movs	r3, #0
 8003d2e:	f884 32a0 	strb.w	r3, [r4, #672]	; 0x2a0
 8003d32:	4628      	mov	r0, r5
 8003d34:	bdf8      	pop	{r3, r4, r5, r6, r7, pc}
 8003d36:	69c2      	ldr	r2, [r0, #28]
 8003d38:	fbb2 f6f3 	udiv	r6, r2, r3
 8003d3c:	fb03 2616 	mls	r6, r3, r6, r2
 8003d40:	b95e      	cbnz	r6, 8003d5a <USBD_LL_DataInStage+0x6a>
 8003d42:	4293      	cmp	r3, r2
 8003d44:	d809      	bhi.n	8003d5a <USBD_LL_DataInStage+0x6a>
 8003d46:	f8d0 3298 	ldr.w	r3, [r0, #664]	; 0x298
 8003d4a:	429a      	cmp	r2, r3
 8003d4c:	d205      	bcs.n	8003d5a <USBD_LL_DataInStage+0x6a>
 8003d4e:	460a      	mov	r2, r1
 8003d50:	f000 fa9e 	bl	8004290 <USBD_CtlContinueSendData>
 8003d54:	f8c4 5298 	str.w	r5, [r4, #664]	; 0x298
 8003d58:	e7de      	b.n	8003d18 <USBD_LL_DataInStage+0x28>
 8003d5a:	f8d4 32b4 	ldr.w	r3, [r4, #692]	; 0x2b4
 8003d5e:	68db      	ldr	r3, [r3, #12]
 8003d60:	b12b      	cbz	r3, 8003d6e <USBD_LL_DataInStage+0x7e>
 8003d62:	f894 229c 	ldrb.w	r2, [r4, #668]	; 0x29c
 8003d66:	2a03      	cmp	r2, #3
 8003d68:	d101      	bne.n	8003d6e <USBD_LL_DataInStage+0x7e>
 8003d6a:	4620      	mov	r0, r4
 8003d6c:	4798      	blx	r3
 8003d6e:	2180      	movs	r1, #128	; 0x80
 8003d70:	4620      	mov	r0, r4
 8003d72:	f000 fcb5 	bl	80046e0 <USBD_LL_StallEP>
 8003d76:	4620      	mov	r0, r4
 8003d78:	f000 fab2 	bl	80042e0 <USBD_CtlReceiveStatus>
 8003d7c:	e7d2      	b.n	8003d24 <USBD_LL_DataInStage+0x34>
 8003d7e:	f033 0304 	bics.w	r3, r3, #4
 8003d82:	d1cf      	bne.n	8003d24 <USBD_LL_DataInStage+0x34>
 8003d84:	2180      	movs	r1, #128	; 0x80
 8003d86:	f000 fcab 	bl	80046e0 <USBD_LL_StallEP>
 8003d8a:	e7cb      	b.n	8003d24 <USBD_LL_DataInStage+0x34>
 8003d8c:	f8d0 32b4 	ldr.w	r3, [r0, #692]	; 0x2b4
 8003d90:	695b      	ldr	r3, [r3, #20]
 8003d92:	b133      	cbz	r3, 8003da2 <USBD_LL_DataInStage+0xb2>
 8003d94:	f890 229c 	ldrb.w	r2, [r0, #668]	; 0x29c
 8003d98:	2a03      	cmp	r2, #3
 8003d9a:	d102      	bne.n	8003da2 <USBD_LL_DataInStage+0xb2>
 8003d9c:	4798      	blx	r3
 8003d9e:	2500      	movs	r5, #0
 8003da0:	e7c7      	b.n	8003d32 <USBD_LL_DataInStage+0x42>
 8003da2:	2502      	movs	r5, #2
 8003da4:	e7c5      	b.n	8003d32 <USBD_LL_DataInStage+0x42>

08003da6 <USBD_LL_Reset>:
 8003da6:	2200      	movs	r2, #0
 8003da8:	b570      	push	{r4, r5, r6, lr}
 8003daa:	4604      	mov	r4, r0
 8003dac:	2501      	movs	r5, #1
 8003dae:	2640      	movs	r6, #64	; 0x40
 8003db0:	4611      	mov	r1, r2
 8003db2:	2340      	movs	r3, #64	; 0x40
 8003db4:	f000 fc76 	bl	80046a4 <USBD_LL_OpenEP>
 8003db8:	4633      	mov	r3, r6
 8003dba:	2180      	movs	r1, #128	; 0x80
 8003dbc:	2200      	movs	r2, #0
 8003dbe:	4620      	mov	r0, r4
 8003dc0:	f8c4 5158 	str.w	r5, [r4, #344]	; 0x158
 8003dc4:	f8c4 6164 	str.w	r6, [r4, #356]	; 0x164
 8003dc8:	f000 fc6c 	bl	80046a4 <USBD_LL_OpenEP>
 8003dcc:	2100      	movs	r1, #0
 8003dce:	f8d4 32b8 	ldr.w	r3, [r4, #696]	; 0x2b8
 8003dd2:	61a5      	str	r5, [r4, #24]
 8003dd4:	6266      	str	r6, [r4, #36]	; 0x24
 8003dd6:	f884 529c 	strb.w	r5, [r4, #668]	; 0x29c
 8003dda:	f8c4 1294 	str.w	r1, [r4, #660]	; 0x294
 8003dde:	6061      	str	r1, [r4, #4]
 8003de0:	f8c4 12a4 	str.w	r1, [r4, #676]	; 0x2a4
 8003de4:	b123      	cbz	r3, 8003df0 <USBD_LL_Reset+0x4a>
 8003de6:	f8d4 32b4 	ldr.w	r3, [r4, #692]	; 0x2b4
 8003dea:	4620      	mov	r0, r4
 8003dec:	685b      	ldr	r3, [r3, #4]
 8003dee:	4798      	blx	r3
 8003df0:	2000      	movs	r0, #0
 8003df2:	bd70      	pop	{r4, r5, r6, pc}

08003df4 <USBD_LL_SetSpeed>:
 8003df4:	7401      	strb	r1, [r0, #16]
 8003df6:	2000      	movs	r0, #0
 8003df8:	4770      	bx	lr

08003dfa <USBD_LL_Suspend>:
 8003dfa:	f890 329c 	ldrb.w	r3, [r0, #668]	; 0x29c
 8003dfe:	f880 329d 	strb.w	r3, [r0, #669]	; 0x29d
 8003e02:	2304      	movs	r3, #4
 8003e04:	f880 329c 	strb.w	r3, [r0, #668]	; 0x29c
 8003e08:	2000      	movs	r0, #0
 8003e0a:	4770      	bx	lr

08003e0c <USBD_LL_Resume>:
 8003e0c:	f890 329c 	ldrb.w	r3, [r0, #668]	; 0x29c
 8003e10:	2b04      	cmp	r3, #4
 8003e12:	bf04      	itt	eq
 8003e14:	f890 329d 	ldrbeq.w	r3, [r0, #669]	; 0x29d
 8003e18:	f880 329c 	strbeq.w	r3, [r0, #668]	; 0x29c
 8003e1c:	2000      	movs	r0, #0
 8003e1e:	4770      	bx	lr

08003e20 <USBD_LL_SOF>:
 8003e20:	b508      	push	{r3, lr}
 8003e22:	f890 229c 	ldrb.w	r2, [r0, #668]	; 0x29c
 8003e26:	2a03      	cmp	r2, #3
 8003e28:	d104      	bne.n	8003e34 <USBD_LL_SOF+0x14>
 8003e2a:	f8d0 32b4 	ldr.w	r3, [r0, #692]	; 0x2b4
 8003e2e:	69db      	ldr	r3, [r3, #28]
 8003e30:	b103      	cbz	r3, 8003e34 <USBD_LL_SOF+0x14>
 8003e32:	4798      	blx	r3
 8003e34:	2000      	movs	r0, #0
 8003e36:	bd08      	pop	{r3, pc}

08003e38 <USBD_CtlError.constprop.0>:
 8003e38:	b510      	push	{r4, lr}
 8003e3a:	4604      	mov	r4, r0
 8003e3c:	2180      	movs	r1, #128	; 0x80
 8003e3e:	f000 fc4f 	bl	80046e0 <USBD_LL_StallEP>
 8003e42:	4620      	mov	r0, r4
 8003e44:	e8bd 4010 	ldmia.w	sp!, {r4, lr}
 8003e48:	2100      	movs	r1, #0
 8003e4a:	f000 bc49 	b.w	80046e0 <USBD_LL_StallEP>
	...

08003e50 <USBD_StdDevReq>:
 8003e50:	b537      	push	{r0, r1, r2, r4, r5, lr}
 8003e52:	780b      	ldrb	r3, [r1, #0]
 8003e54:	4604      	mov	r4, r0
 8003e56:	f003 0360 	and.w	r3, r3, #96	; 0x60
 8003e5a:	2b20      	cmp	r3, #32
 8003e5c:	460d      	mov	r5, r1
 8003e5e:	d012      	beq.n	8003e86 <USBD_StdDevReq+0x36>
 8003e60:	2b40      	cmp	r3, #64	; 0x40
 8003e62:	d010      	beq.n	8003e86 <USBD_StdDevReq+0x36>
 8003e64:	2b00      	cmp	r3, #0
 8003e66:	d151      	bne.n	8003f0c <USBD_StdDevReq+0xbc>
 8003e68:	784b      	ldrb	r3, [r1, #1]
 8003e6a:	2b09      	cmp	r3, #9
 8003e6c:	d84e      	bhi.n	8003f0c <USBD_StdDevReq+0xbc>
 8003e6e:	e8df f013 	tbh	[pc, r3, lsl #1]
 8003e72:	00ee      	.short	0x00ee
 8003e74:	004d010a 	.word	0x004d010a
 8003e78:	004d0103 	.word	0x004d0103
 8003e7c:	00130087 	.word	0x00130087
 8003e80:	00d6004d 	.word	0x00d6004d
 8003e84:	00a3      	.short	0x00a3
 8003e86:	f8d4 32b4 	ldr.w	r3, [r4, #692]	; 0x2b4
 8003e8a:	4629      	mov	r1, r5
 8003e8c:	4620      	mov	r0, r4
 8003e8e:	689b      	ldr	r3, [r3, #8]
 8003e90:	4798      	blx	r3
 8003e92:	2000      	movs	r0, #0
 8003e94:	b003      	add	sp, #12
 8003e96:	bd30      	pop	{r4, r5, pc}
 8003e98:	2300      	movs	r3, #0
 8003e9a:	f8ad 3006 	strh.w	r3, [sp, #6]
 8003e9e:	884b      	ldrh	r3, [r1, #2]
 8003ea0:	0a1a      	lsrs	r2, r3, #8
 8003ea2:	3a01      	subs	r2, #1
 8003ea4:	2a06      	cmp	r2, #6
 8003ea6:	d831      	bhi.n	8003f0c <USBD_StdDevReq+0xbc>
 8003ea8:	e8df f002 	tbb	[pc, r2]
 8003eac:	30231604 	.word	0x30231604
 8003eb0:	4830      	.short	0x4830
 8003eb2:	52          	.byte	0x52
 8003eb3:	00          	.byte	0x00
 8003eb4:	f8d0 32b0 	ldr.w	r3, [r0, #688]	; 0x2b0
 8003eb8:	681b      	ldr	r3, [r3, #0]
 8003eba:	7c20      	ldrb	r0, [r4, #16]
 8003ebc:	f10d 0106 	add.w	r1, sp, #6
 8003ec0:	4798      	blx	r3
 8003ec2:	f8bd 2006 	ldrh.w	r2, [sp, #6]
 8003ec6:	2a00      	cmp	r2, #0
 8003ec8:	d056      	beq.n	8003f78 <USBD_StdDevReq+0x128>
 8003eca:	88eb      	ldrh	r3, [r5, #6]
 8003ecc:	2b00      	cmp	r3, #0
 8003ece:	d14a      	bne.n	8003f66 <USBD_StdDevReq+0x116>
 8003ed0:	4620      	mov	r0, r4
 8003ed2:	f000 f9fa 	bl	80042ca <USBD_CtlSendStatus>
 8003ed6:	e7dc      	b.n	8003e92 <USBD_StdDevReq+0x42>
 8003ed8:	7c02      	ldrb	r2, [r0, #16]
 8003eda:	f8d0 32b4 	ldr.w	r3, [r0, #692]	; 0x2b4
 8003ede:	b932      	cbnz	r2, 8003eee <USBD_StdDevReq+0x9e>
 8003ee0:	6a9b      	ldr	r3, [r3, #40]	; 0x28
 8003ee2:	f10d 0006 	add.w	r0, sp, #6
 8003ee6:	4798      	blx	r3
 8003ee8:	2302      	movs	r3, #2
 8003eea:	7043      	strb	r3, [r0, #1]
 8003eec:	e7e9      	b.n	8003ec2 <USBD_StdDevReq+0x72>
 8003eee:	6adb      	ldr	r3, [r3, #44]	; 0x2c
 8003ef0:	e7f7      	b.n	8003ee2 <USBD_StdDevReq+0x92>
 8003ef2:	b2db      	uxtb	r3, r3
 8003ef4:	2b05      	cmp	r3, #5
 8003ef6:	d809      	bhi.n	8003f0c <USBD_StdDevReq+0xbc>
 8003ef8:	e8df f003 	tbb	[pc, r3]
 8003efc:	14100c03 	.word	0x14100c03
 8003f00:	1c18      	.short	0x1c18
 8003f02:	f8d0 32b0 	ldr.w	r3, [r0, #688]	; 0x2b0
 8003f06:	685b      	ldr	r3, [r3, #4]
 8003f08:	2b00      	cmp	r3, #0
 8003f0a:	d1d6      	bne.n	8003eba <USBD_StdDevReq+0x6a>
 8003f0c:	4620      	mov	r0, r4
 8003f0e:	f7ff ff93 	bl	8003e38 <USBD_CtlError.constprop.0>
 8003f12:	e7be      	b.n	8003e92 <USBD_StdDevReq+0x42>
 8003f14:	f8d0 32b0 	ldr.w	r3, [r0, #688]	; 0x2b0
 8003f18:	689b      	ldr	r3, [r3, #8]
 8003f1a:	e7f5      	b.n	8003f08 <USBD_StdDevReq+0xb8>
 8003f1c:	f8d0 32b0 	ldr.w	r3, [r0, #688]	; 0x2b0
 8003f20:	68db      	ldr	r3, [r3, #12]
 8003f22:	e7f1      	b.n	8003f08 <USBD_StdDevReq+0xb8>
 8003f24:	f8d0 32b0 	ldr.w	r3, [r0, #688]	; 0x2b0
 8003f28:	691b      	ldr	r3, [r3, #16]
 8003f2a:	e7ed      	b.n	8003f08 <USBD_StdDevReq+0xb8>
 8003f2c:	f8d0 32b0 	ldr.w	r3, [r0, #688]	; 0x2b0
 8003f30:	695b      	ldr	r3, [r3, #20]
 8003f32:	e7e9      	b.n	8003f08 <USBD_StdDevReq+0xb8>
 8003f34:	f8d0 32b0 	ldr.w	r3, [r0, #688]	; 0x2b0
 8003f38:	699b      	ldr	r3, [r3, #24]
 8003f3a:	e7e5      	b.n	8003f08 <USBD_StdDevReq+0xb8>
 8003f3c:	7c03      	ldrb	r3, [r0, #16]
 8003f3e:	2b00      	cmp	r3, #0
 8003f40:	d1e4      	bne.n	8003f0c <USBD_StdDevReq+0xbc>
 8003f42:	f8d0 32b4 	ldr.w	r3, [r0, #692]	; 0x2b4
 8003f46:	f10d 0006 	add.w	r0, sp, #6
 8003f4a:	6b5b      	ldr	r3, [r3, #52]	; 0x34
 8003f4c:	4798      	blx	r3
 8003f4e:	e7b8      	b.n	8003ec2 <USBD_StdDevReq+0x72>
 8003f50:	7c03      	ldrb	r3, [r0, #16]
 8003f52:	2b00      	cmp	r3, #0
 8003f54:	d1da      	bne.n	8003f0c <USBD_StdDevReq+0xbc>
 8003f56:	f8d0 32b4 	ldr.w	r3, [r0, #692]	; 0x2b4
 8003f5a:	f10d 0006 	add.w	r0, sp, #6
 8003f5e:	6b1b      	ldr	r3, [r3, #48]	; 0x30
 8003f60:	4798      	blx	r3
 8003f62:	2307      	movs	r3, #7
 8003f64:	e7c1      	b.n	8003eea <USBD_StdDevReq+0x9a>
 8003f66:	429a      	cmp	r2, r3
 8003f68:	bf28      	it	cs
 8003f6a:	461a      	movcs	r2, r3
 8003f6c:	4601      	mov	r1, r0
 8003f6e:	4620      	mov	r0, r4
 8003f70:	f8ad 2006 	strh.w	r2, [sp, #6]
 8003f74:	f000 f97f 	bl	8004276 <USBD_CtlSendData>
 8003f78:	88eb      	ldrh	r3, [r5, #6]
 8003f7a:	2b00      	cmp	r3, #0
 8003f7c:	d189      	bne.n	8003e92 <USBD_StdDevReq+0x42>
 8003f7e:	e7a7      	b.n	8003ed0 <USBD_StdDevReq+0x80>
 8003f80:	888b      	ldrh	r3, [r1, #4]
 8003f82:	2b00      	cmp	r3, #0
 8003f84:	d1c2      	bne.n	8003f0c <USBD_StdDevReq+0xbc>
 8003f86:	88cb      	ldrh	r3, [r1, #6]
 8003f88:	2b00      	cmp	r3, #0
 8003f8a:	d1bf      	bne.n	8003f0c <USBD_StdDevReq+0xbc>
 8003f8c:	884d      	ldrh	r5, [r1, #2]
 8003f8e:	2d7f      	cmp	r5, #127	; 0x7f
 8003f90:	d8bc      	bhi.n	8003f0c <USBD_StdDevReq+0xbc>
 8003f92:	f890 329c 	ldrb.w	r3, [r0, #668]	; 0x29c
 8003f96:	2b03      	cmp	r3, #3
 8003f98:	d0b8      	beq.n	8003f0c <USBD_StdDevReq+0xbc>
 8003f9a:	b2e9      	uxtb	r1, r5
 8003f9c:	f880 129e 	strb.w	r1, [r0, #670]	; 0x29e
 8003fa0:	f000 fbcc 	bl	800473c <USBD_LL_SetUSBAddress>
 8003fa4:	4620      	mov	r0, r4
 8003fa6:	f000 f990 	bl	80042ca <USBD_CtlSendStatus>
 8003faa:	b11d      	cbz	r5, 8003fb4 <USBD_StdDevReq+0x164>
 8003fac:	2302      	movs	r3, #2
 8003fae:	f884 329c 	strb.w	r3, [r4, #668]	; 0x29c
 8003fb2:	e76e      	b.n	8003e92 <USBD_StdDevReq+0x42>
 8003fb4:	2301      	movs	r3, #1
 8003fb6:	e7fa      	b.n	8003fae <USBD_StdDevReq+0x15e>
 8003fb8:	7889      	ldrb	r1, [r1, #2]
 8003fba:	4d39      	ldr	r5, [pc, #228]	; (80040a0 <USBD_StdDevReq+0x250>)
 8003fbc:	2901      	cmp	r1, #1
 8003fbe:	7029      	strb	r1, [r5, #0]
 8003fc0:	d8a4      	bhi.n	8003f0c <USBD_StdDevReq+0xbc>
 8003fc2:	f890 329c 	ldrb.w	r3, [r0, #668]	; 0x29c
 8003fc6:	2b02      	cmp	r3, #2
 8003fc8:	d008      	beq.n	8003fdc <USBD_StdDevReq+0x18c>
 8003fca:	2b03      	cmp	r3, #3
 8003fcc:	d015      	beq.n	8003ffa <USBD_StdDevReq+0x1aa>
 8003fce:	f7ff ff33 	bl	8003e38 <USBD_CtlError.constprop.0>
 8003fd2:	4620      	mov	r0, r4
 8003fd4:	7829      	ldrb	r1, [r5, #0]
 8003fd6:	f7ff fe1d 	bl	8003c14 <USBD_ClrClassConfig>
 8003fda:	e75a      	b.n	8003e92 <USBD_StdDevReq+0x42>
 8003fdc:	2900      	cmp	r1, #0
 8003fde:	f43f af77 	beq.w	8003ed0 <USBD_StdDevReq+0x80>
 8003fe2:	2101      	movs	r1, #1
 8003fe4:	2303      	movs	r3, #3
 8003fe6:	6041      	str	r1, [r0, #4]
 8003fe8:	f880 329c 	strb.w	r3, [r0, #668]	; 0x29c
 8003fec:	4620      	mov	r0, r4
 8003fee:	f7ff fe06 	bl	8003bfe <USBD_SetClassConfig>
 8003ff2:	2802      	cmp	r0, #2
 8003ff4:	f47f af6c 	bne.w	8003ed0 <USBD_StdDevReq+0x80>
 8003ff8:	e788      	b.n	8003f0c <USBD_StdDevReq+0xbc>
 8003ffa:	b931      	cbnz	r1, 800400a <USBD_StdDevReq+0x1ba>
 8003ffc:	2302      	movs	r3, #2
 8003ffe:	6041      	str	r1, [r0, #4]
 8004000:	f880 329c 	strb.w	r3, [r0, #668]	; 0x29c
 8004004:	f7ff fe06 	bl	8003c14 <USBD_ClrClassConfig>
 8004008:	e762      	b.n	8003ed0 <USBD_StdDevReq+0x80>
 800400a:	6841      	ldr	r1, [r0, #4]
 800400c:	2901      	cmp	r1, #1
 800400e:	f43f af5f 	beq.w	8003ed0 <USBD_StdDevReq+0x80>
 8004012:	b2c9      	uxtb	r1, r1
 8004014:	f7ff fdfe 	bl	8003c14 <USBD_ClrClassConfig>
 8004018:	7829      	ldrb	r1, [r5, #0]
 800401a:	6061      	str	r1, [r4, #4]
 800401c:	e7e6      	b.n	8003fec <USBD_StdDevReq+0x19c>
 800401e:	88ca      	ldrh	r2, [r1, #6]
 8004020:	2a01      	cmp	r2, #1
 8004022:	f47f af73 	bne.w	8003f0c <USBD_StdDevReq+0xbc>
 8004026:	f890 329c 	ldrb.w	r3, [r0, #668]	; 0x29c
 800402a:	2b02      	cmp	r3, #2
 800402c:	d80a      	bhi.n	8004044 <USBD_StdDevReq+0x1f4>
 800402e:	2b00      	cmp	r3, #0
 8004030:	f43f af6c 	beq.w	8003f0c <USBD_StdDevReq+0xbc>
 8004034:	4601      	mov	r1, r0
 8004036:	2300      	movs	r3, #0
 8004038:	f841 3f08 	str.w	r3, [r1, #8]!
 800403c:	4620      	mov	r0, r4
 800403e:	f000 f91a 	bl	8004276 <USBD_CtlSendData>
 8004042:	e726      	b.n	8003e92 <USBD_StdDevReq+0x42>
 8004044:	2b03      	cmp	r3, #3
 8004046:	f47f af61 	bne.w	8003f0c <USBD_StdDevReq+0xbc>
 800404a:	1d01      	adds	r1, r0, #4
 800404c:	e7f6      	b.n	800403c <USBD_StdDevReq+0x1ec>
 800404e:	f890 329c 	ldrb.w	r3, [r0, #668]	; 0x29c
 8004052:	3b01      	subs	r3, #1
 8004054:	2b02      	cmp	r3, #2
 8004056:	f63f af59 	bhi.w	8003f0c <USBD_StdDevReq+0xbc>
 800405a:	88cb      	ldrh	r3, [r1, #6]
 800405c:	2b02      	cmp	r3, #2
 800405e:	f47f af55 	bne.w	8003f0c <USBD_StdDevReq+0xbc>
 8004062:	2301      	movs	r3, #1
 8004064:	60c3      	str	r3, [r0, #12]
 8004066:	f8d0 32a4 	ldr.w	r3, [r0, #676]	; 0x2a4
 800406a:	b10b      	cbz	r3, 8004070 <USBD_StdDevReq+0x220>
 800406c:	2303      	movs	r3, #3
 800406e:	60c3      	str	r3, [r0, #12]
 8004070:	2202      	movs	r2, #2
 8004072:	f104 010c 	add.w	r1, r4, #12
 8004076:	e7e1      	b.n	800403c <USBD_StdDevReq+0x1ec>
 8004078:	884b      	ldrh	r3, [r1, #2]
 800407a:	2b01      	cmp	r3, #1
 800407c:	f47f af09 	bne.w	8003e92 <USBD_StdDevReq+0x42>
 8004080:	f8c4 32a4 	str.w	r3, [r4, #676]	; 0x2a4
 8004084:	e724      	b.n	8003ed0 <USBD_StdDevReq+0x80>
 8004086:	f890 329c 	ldrb.w	r3, [r0, #668]	; 0x29c
 800408a:	3b01      	subs	r3, #1
 800408c:	2b02      	cmp	r3, #2
 800408e:	f63f af3d 	bhi.w	8003f0c <USBD_StdDevReq+0xbc>
 8004092:	884b      	ldrh	r3, [r1, #2]
 8004094:	2b01      	cmp	r3, #1
 8004096:	f47f aefc 	bne.w	8003e92 <USBD_StdDevReq+0x42>
 800409a:	2300      	movs	r3, #0
 800409c:	e7f0      	b.n	8004080 <USBD_StdDevReq+0x230>
 800409e:	bf00      	nop
 80040a0:	200001a0 	.word	0x200001a0

080040a4 <USBD_StdItfReq>:
 80040a4:	b538      	push	{r3, r4, r5, lr}
 80040a6:	780b      	ldrb	r3, [r1, #0]
 80040a8:	4604      	mov	r4, r0
 80040aa:	f003 0260 	and.w	r2, r3, #96	; 0x60
 80040ae:	2a40      	cmp	r2, #64	; 0x40
 80040b0:	460d      	mov	r5, r1
 80040b2:	d001      	beq.n	80040b8 <USBD_StdItfReq+0x14>
 80040b4:	065b      	lsls	r3, r3, #25
 80040b6:	d415      	bmi.n	80040e4 <USBD_StdItfReq+0x40>
 80040b8:	f894 329c 	ldrb.w	r3, [r4, #668]	; 0x29c
 80040bc:	3b01      	subs	r3, #1
 80040be:	2b02      	cmp	r3, #2
 80040c0:	d810      	bhi.n	80040e4 <USBD_StdItfReq+0x40>
 80040c2:	792b      	ldrb	r3, [r5, #4]
 80040c4:	2b01      	cmp	r3, #1
 80040c6:	d80d      	bhi.n	80040e4 <USBD_StdItfReq+0x40>
 80040c8:	f8d4 32b4 	ldr.w	r3, [r4, #692]	; 0x2b4
 80040cc:	4629      	mov	r1, r5
 80040ce:	689b      	ldr	r3, [r3, #8]
 80040d0:	4620      	mov	r0, r4
 80040d2:	4798      	blx	r3
 80040d4:	88eb      	ldrh	r3, [r5, #6]
 80040d6:	b91b      	cbnz	r3, 80040e0 <USBD_StdItfReq+0x3c>
 80040d8:	b910      	cbnz	r0, 80040e0 <USBD_StdItfReq+0x3c>
 80040da:	4620      	mov	r0, r4
 80040dc:	f000 f8f5 	bl	80042ca <USBD_CtlSendStatus>
 80040e0:	2000      	movs	r0, #0
 80040e2:	bd38      	pop	{r3, r4, r5, pc}
 80040e4:	4620      	mov	r0, r4
 80040e6:	f7ff fea7 	bl	8003e38 <USBD_CtlError.constprop.0>
 80040ea:	e7f9      	b.n	80040e0 <USBD_StdItfReq+0x3c>

080040ec <USBD_StdEPReq>:
 80040ec:	b538      	push	{r3, r4, r5, lr}
 80040ee:	780a      	ldrb	r2, [r1, #0]
 80040f0:	4604      	mov	r4, r0
 80040f2:	f002 0260 	and.w	r2, r2, #96	; 0x60
 80040f6:	2a20      	cmp	r2, #32
 80040f8:	460b      	mov	r3, r1
 80040fa:	d027      	beq.n	800414c <USBD_StdEPReq+0x60>
 80040fc:	2a40      	cmp	r2, #64	; 0x40
 80040fe:	d025      	beq.n	800414c <USBD_StdEPReq+0x60>
 8004100:	bb92      	cbnz	r2, 8004168 <USBD_StdEPReq+0x7c>
 8004102:	785a      	ldrb	r2, [r3, #1]
 8004104:	888d      	ldrh	r5, [r1, #4]
 8004106:	2a01      	cmp	r2, #1
 8004108:	7909      	ldrb	r1, [r1, #4]
 800410a:	d03d      	beq.n	8004188 <USBD_StdEPReq+0x9c>
 800410c:	2a03      	cmp	r2, #3
 800410e:	d025      	beq.n	800415c <USBD_StdEPReq+0x70>
 8004110:	bb52      	cbnz	r2, 8004168 <USBD_StdEPReq+0x7c>
 8004112:	f890 329c 	ldrb.w	r3, [r0, #668]	; 0x29c
 8004116:	2b02      	cmp	r3, #2
 8004118:	d04d      	beq.n	80041b6 <USBD_StdEPReq+0xca>
 800411a:	2b03      	cmp	r3, #3
 800411c:	d124      	bne.n	8004168 <USBD_StdEPReq+0x7c>
 800411e:	2214      	movs	r2, #20
 8004120:	f001 030f 	and.w	r3, r1, #15
 8004124:	f015 0f80 	tst.w	r5, #128	; 0x80
 8004128:	fb02 0303 	mla	r3, r2, r3, r0
 800412c:	d054      	beq.n	80041d8 <USBD_StdEPReq+0xec>
 800412e:	699b      	ldr	r3, [r3, #24]
 8004130:	b1d3      	cbz	r3, 8004168 <USBD_StdEPReq+0x7c>
 8004132:	2314      	movs	r3, #20
 8004134:	f001 057f 	and.w	r5, r1, #127	; 0x7f
 8004138:	fb05 3303 	mla	r3, r5, r3, r3
 800413c:	18c5      	adds	r5, r0, r3
 800413e:	f011 037f 	ands.w	r3, r1, #127	; 0x7f
 8004142:	d155      	bne.n	80041f0 <USBD_StdEPReq+0x104>
 8004144:	602b      	str	r3, [r5, #0]
 8004146:	2202      	movs	r2, #2
 8004148:	4629      	mov	r1, r5
 800414a:	e041      	b.n	80041d0 <USBD_StdEPReq+0xe4>
 800414c:	f8d4 22b4 	ldr.w	r2, [r4, #692]	; 0x2b4
 8004150:	4619      	mov	r1, r3
 8004152:	4620      	mov	r0, r4
 8004154:	6892      	ldr	r2, [r2, #8]
 8004156:	4790      	blx	r2
 8004158:	2000      	movs	r0, #0
 800415a:	bd38      	pop	{r3, r4, r5, pc}
 800415c:	f890 229c 	ldrb.w	r2, [r0, #668]	; 0x29c
 8004160:	2a02      	cmp	r2, #2
 8004162:	d01f      	beq.n	80041a4 <USBD_StdEPReq+0xb8>
 8004164:	2a03      	cmp	r2, #3
 8004166:	d003      	beq.n	8004170 <USBD_StdEPReq+0x84>
 8004168:	4620      	mov	r0, r4
 800416a:	f7ff fe65 	bl	8003e38 <USBD_CtlError.constprop.0>
 800416e:	e7f3      	b.n	8004158 <USBD_StdEPReq+0x6c>
 8004170:	885a      	ldrh	r2, [r3, #2]
 8004172:	b92a      	cbnz	r2, 8004180 <USBD_StdEPReq+0x94>
 8004174:	064a      	lsls	r2, r1, #25
 8004176:	d003      	beq.n	8004180 <USBD_StdEPReq+0x94>
 8004178:	88db      	ldrh	r3, [r3, #6]
 800417a:	b90b      	cbnz	r3, 8004180 <USBD_StdEPReq+0x94>
 800417c:	f000 fab0 	bl	80046e0 <USBD_LL_StallEP>
 8004180:	4620      	mov	r0, r4
 8004182:	f000 f8a2 	bl	80042ca <USBD_CtlSendStatus>
 8004186:	e7e7      	b.n	8004158 <USBD_StdEPReq+0x6c>
 8004188:	f890 229c 	ldrb.w	r2, [r0, #668]	; 0x29c
 800418c:	2a02      	cmp	r2, #2
 800418e:	d009      	beq.n	80041a4 <USBD_StdEPReq+0xb8>
 8004190:	2a03      	cmp	r2, #3
 8004192:	d1e9      	bne.n	8004168 <USBD_StdEPReq+0x7c>
 8004194:	885b      	ldrh	r3, [r3, #2]
 8004196:	2b00      	cmp	r3, #0
 8004198:	d1de      	bne.n	8004158 <USBD_StdEPReq+0x6c>
 800419a:	064d      	lsls	r5, r1, #25
 800419c:	d0f0      	beq.n	8004180 <USBD_StdEPReq+0x94>
 800419e:	f000 faad 	bl	80046fc <USBD_LL_ClearStallEP>
 80041a2:	e7ed      	b.n	8004180 <USBD_StdEPReq+0x94>
 80041a4:	064b      	lsls	r3, r1, #25
 80041a6:	d0df      	beq.n	8004168 <USBD_StdEPReq+0x7c>
 80041a8:	f000 fa9a 	bl	80046e0 <USBD_LL_StallEP>
 80041ac:	2180      	movs	r1, #128	; 0x80
 80041ae:	4620      	mov	r0, r4
 80041b0:	f000 fa96 	bl	80046e0 <USBD_LL_StallEP>
 80041b4:	e7d0      	b.n	8004158 <USBD_StdEPReq+0x6c>
 80041b6:	064a      	lsls	r2, r1, #25
 80041b8:	d1d6      	bne.n	8004168 <USBD_StdEPReq+0x7c>
 80041ba:	062b      	lsls	r3, r5, #24
 80041bc:	f04f 0300 	mov.w	r3, #0
 80041c0:	f04f 0202 	mov.w	r2, #2
 80041c4:	bf4c      	ite	mi
 80041c6:	f100 0114 	addmi.w	r1, r0, #20
 80041ca:	f500 71aa 	addpl.w	r1, r0, #340	; 0x154
 80041ce:	600b      	str	r3, [r1, #0]
 80041d0:	4620      	mov	r0, r4
 80041d2:	f000 f850 	bl	8004276 <USBD_CtlSendData>
 80041d6:	e7bf      	b.n	8004158 <USBD_StdEPReq+0x6c>
 80041d8:	f8d3 3158 	ldr.w	r3, [r3, #344]	; 0x158
 80041dc:	2b00      	cmp	r3, #0
 80041de:	d0c3      	beq.n	8004168 <USBD_StdEPReq+0x7c>
 80041e0:	2314      	movs	r3, #20
 80041e2:	f001 057f 	and.w	r5, r1, #127	; 0x7f
 80041e6:	fb03 0505 	mla	r5, r3, r5, r0
 80041ea:	f505 75aa 	add.w	r5, r5, #340	; 0x154
 80041ee:	e7a6      	b.n	800413e <USBD_StdEPReq+0x52>
 80041f0:	4620      	mov	r0, r4
 80041f2:	f000 fa91 	bl	8004718 <USBD_LL_IsStallEP>
 80041f6:	b108      	cbz	r0, 80041fc <USBD_StdEPReq+0x110>
 80041f8:	2301      	movs	r3, #1
 80041fa:	e7a3      	b.n	8004144 <USBD_StdEPReq+0x58>
 80041fc:	6028      	str	r0, [r5, #0]
 80041fe:	e7a2      	b.n	8004146 <USBD_StdEPReq+0x5a>

08004200 <USBD_ParseSetupRequest>:
 8004200:	780b      	ldrb	r3, [r1, #0]
 8004202:	7003      	strb	r3, [r0, #0]
 8004204:	784b      	ldrb	r3, [r1, #1]
 8004206:	7043      	strb	r3, [r0, #1]
 8004208:	78ca      	ldrb	r2, [r1, #3]
 800420a:	788b      	ldrb	r3, [r1, #2]
 800420c:	eb03 2302 	add.w	r3, r3, r2, lsl #8
 8004210:	8043      	strh	r3, [r0, #2]
 8004212:	794a      	ldrb	r2, [r1, #5]
 8004214:	790b      	ldrb	r3, [r1, #4]
 8004216:	eb03 2302 	add.w	r3, r3, r2, lsl #8
 800421a:	8083      	strh	r3, [r0, #4]
 800421c:	79ca      	ldrb	r2, [r1, #7]
 800421e:	798b      	ldrb	r3, [r1, #6]
 8004220:	eb03 2302 	add.w	r3, r3, r2, lsl #8
 8004224:	80c3      	strh	r3, [r0, #6]
 8004226:	4770      	bx	lr

08004228 <USBD_CtlError>:
 8004228:	b510      	push	{r4, lr}
 800422a:	4604      	mov	r4, r0
 800422c:	2180      	movs	r1, #128	; 0x80
 800422e:	f000 fa57 	bl	80046e0 <USBD_LL_StallEP>
 8004232:	4620      	mov	r0, r4
 8004234:	e8bd 4010 	ldmia.w	sp!, {r4, lr}
 8004238:	2100      	movs	r1, #0
 800423a:	f000 ba51 	b.w	80046e0 <USBD_LL_StallEP>

0800423e <USBD_GetString>:
 800423e:	b530      	push	{r4, r5, lr}
 8004240:	b188      	cbz	r0, 8004266 <USBD_GetString+0x28>
 8004242:	2500      	movs	r5, #0
 8004244:	3801      	subs	r0, #1
 8004246:	462b      	mov	r3, r5
 8004248:	3501      	adds	r5, #1
 800424a:	5d44      	ldrb	r4, [r0, r5]
 800424c:	2c00      	cmp	r4, #0
 800424e:	d1fa      	bne.n	8004246 <USBD_GetString+0x8>
 8004250:	b2db      	uxtb	r3, r3
 8004252:	3301      	adds	r3, #1
 8004254:	005b      	lsls	r3, r3, #1
 8004256:	8013      	strh	r3, [r2, #0]
 8004258:	700b      	strb	r3, [r1, #0]
 800425a:	2303      	movs	r3, #3
 800425c:	704b      	strb	r3, [r1, #1]
 800425e:	2302      	movs	r3, #2
 8004260:	f810 5f01 	ldrb.w	r5, [r0, #1]!
 8004264:	b905      	cbnz	r5, 8004268 <USBD_GetString+0x2a>
 8004266:	bd30      	pop	{r4, r5, pc}
 8004268:	1c5a      	adds	r2, r3, #1
 800426a:	54cd      	strb	r5, [r1, r3]
 800426c:	b2d2      	uxtb	r2, r2
 800426e:	3302      	adds	r3, #2
 8004270:	b2db      	uxtb	r3, r3
 8004272:	548c      	strb	r4, [r1, r2]
 8004274:	e7f4      	b.n	8004260 <USBD_GetString+0x22>

08004276 <USBD_CtlSendData>:
 8004276:	4613      	mov	r3, r2
 8004278:	2202      	movs	r2, #2
 800427a:	b510      	push	{r4, lr}
 800427c:	e9c0 3307 	strd	r3, r3, [r0, #28]
 8004280:	f8c0 2294 	str.w	r2, [r0, #660]	; 0x294
 8004284:	460a      	mov	r2, r1
 8004286:	2100      	movs	r1, #0
 8004288:	f000 fa66 	bl	8004758 <USBD_LL_Transmit>
 800428c:	2000      	movs	r0, #0
 800428e:	bd10      	pop	{r4, pc}

08004290 <USBD_CtlContinueSendData>:
 8004290:	b508      	push	{r3, lr}
 8004292:	4613      	mov	r3, r2
 8004294:	460a      	mov	r2, r1
 8004296:	2100      	movs	r1, #0
 8004298:	f000 fa5e 	bl	8004758 <USBD_LL_Transmit>
 800429c:	2000      	movs	r0, #0
 800429e:	bd08      	pop	{r3, pc}

080042a0 <USBD_CtlPrepareRx>:
 80042a0:	4613      	mov	r3, r2
 80042a2:	2203      	movs	r2, #3
 80042a4:	b510      	push	{r4, lr}
 80042a6:	e9c0 3357 	strd	r3, r3, [r0, #348]	; 0x15c
 80042aa:	f8c0 2294 	str.w	r2, [r0, #660]	; 0x294
 80042ae:	460a      	mov	r2, r1
 80042b0:	2100      	movs	r1, #0
 80042b2:	f000 fa5f 	bl	8004774 <USBD_LL_PrepareReceive>
 80042b6:	2000      	movs	r0, #0
 80042b8:	bd10      	pop	{r4, pc}

080042ba <USBD_CtlContinueRx>:
 80042ba:	b508      	push	{r3, lr}
 80042bc:	4613      	mov	r3, r2
 80042be:	460a      	mov	r2, r1
 80042c0:	2100      	movs	r1, #0
 80042c2:	f000 fa57 	bl	8004774 <USBD_LL_PrepareReceive>
 80042c6:	2000      	movs	r0, #0
 80042c8:	bd08      	pop	{r3, pc}

080042ca <USBD_CtlSendStatus>:
 80042ca:	b508      	push	{r3, lr}
 80042cc:	2304      	movs	r3, #4
 80042ce:	f8c0 3294 	str.w	r3, [r0, #660]	; 0x294
 80042d2:	2300      	movs	r3, #0
 80042d4:	461a      	mov	r2, r3
 80042d6:	4619      	mov	r1, r3
 80042d8:	f000 fa3e 	bl	8004758 <USBD_LL_Transmit>
 80042dc:	2000      	movs	r0, #0
 80042de:	bd08      	pop	{r3, pc}

080042e0 <USBD_CtlReceiveStatus>:
 80042e0:	b508      	push	{r3, lr}
 80042e2:	2305      	movs	r3, #5
 80042e4:	f8c0 3294 	str.w	r3, [r0, #660]	; 0x294
 80042e8:	2300      	movs	r3, #0
 80042ea:	461a      	mov	r2, r3
 80042ec:	4619      	mov	r1, r3
 80042ee:	f000 fa41 	bl	8004774 <USBD_LL_PrepareReceive>
 80042f2:	2000      	movs	r0, #0
 80042f4:	bd08      	pop	{r3, pc}
	...

080042f8 <MX_USB_DEVICE_DeInit>:
 80042f8:	b508      	push	{r3, lr}
 80042fa:	4807      	ldr	r0, [pc, #28]	; (8004318 <MX_USB_DEVICE_DeInit+0x20>)
 80042fc:	f7ff fc73 	bl	8003be6 <USBD_Stop>
 8004300:	b108      	cbz	r0, 8004306 <MX_USB_DEVICE_DeInit+0xe>
 8004302:	f7fc fb23 	bl	800094c <Error_Handler>
 8004306:	4804      	ldr	r0, [pc, #16]	; (8004318 <MX_USB_DEVICE_DeInit+0x20>)
 8004308:	f7ff fc4f 	bl	8003baa <USBD_DeInit>
 800430c:	b118      	cbz	r0, 8004316 <MX_USB_DEVICE_DeInit+0x1e>
 800430e:	e8bd 4008 	ldmia.w	sp!, {r3, lr}
 8004312:	f7fc bb1b 	b.w	800094c <Error_Handler>
 8004316:	bd08      	pop	{r3, pc}
 8004318:	20000438 	.word	0x20000438

0800431c <MX_USB_DEVICE_Init>:
 800431c:	b508      	push	{r3, lr}
 800431e:	2200      	movs	r2, #0
 8004320:	490e      	ldr	r1, [pc, #56]	; (800435c <MX_USB_DEVICE_Init+0x40>)
 8004322:	480f      	ldr	r0, [pc, #60]	; (8004360 <MX_USB_DEVICE_Init+0x44>)
 8004324:	f7ff fc2c 	bl	8003b80 <USBD_Init>
 8004328:	b108      	cbz	r0, 800432e <MX_USB_DEVICE_Init+0x12>
 800432a:	f7fc fb0f 	bl	800094c <Error_Handler>
 800432e:	490d      	ldr	r1, [pc, #52]	; (8004364 <MX_USB_DEVICE_Init+0x48>)
 8004330:	480b      	ldr	r0, [pc, #44]	; (8004360 <MX_USB_DEVICE_Init+0x44>)
 8004332:	f7ff fc4c 	bl	8003bce <USBD_RegisterClass>
 8004336:	b108      	cbz	r0, 800433c <MX_USB_DEVICE_Init+0x20>
 8004338:	f7fc fb08 	bl	800094c <Error_Handler>
 800433c:	490a      	ldr	r1, [pc, #40]	; (8004368 <MX_USB_DEVICE_Init+0x4c>)
 800433e:	4808      	ldr	r0, [pc, #32]	; (8004360 <MX_USB_DEVICE_Init+0x44>)
 8004340:	f7ff fbd9 	bl	8003af6 <USBD_CDC_RegisterInterface>
 8004344:	b108      	cbz	r0, 800434a <MX_USB_DEVICE_Init+0x2e>
 8004346:	f7fc fb01 	bl	800094c <Error_Handler>
 800434a:	4805      	ldr	r0, [pc, #20]	; (8004360 <MX_USB_DEVICE_Init+0x44>)
 800434c:	f7ff fc46 	bl	8003bdc <USBD_Start>
 8004350:	b118      	cbz	r0, 800435a <MX_USB_DEVICE_Init+0x3e>
 8004352:	e8bd 4008 	ldmia.w	sp!, {r3, lr}
 8004356:	f7fc baf9 	b.w	800094c <Error_Handler>
 800435a:	bd08      	pop	{r3, pc}
 800435c:	20000130 	.word	0x20000130
 8004360:	20000438 	.word	0x20000438
 8004364:	20000010 	.word	0x20000010
 8004368:	20000120 	.word	0x20000120

0800436c <CDC_DeInit_FS>:
 800436c:	2000      	movs	r0, #0
 800436e:	4770      	bx	lr

08004370 <CDC_Control_FS>:
 8004370:	2000      	movs	r0, #0
 8004372:	4770      	bx	lr

08004374 <CDC_Receive_FS>:
 8004374:	b570      	push	{r4, r5, r6, lr}
 8004376:	4604      	mov	r4, r0
 8004378:	460d      	mov	r5, r1
 800437a:	4e07      	ldr	r6, [pc, #28]	; (8004398 <CDC_Receive_FS+0x24>)
 800437c:	4601      	mov	r1, r0
 800437e:	4630      	mov	r0, r6
 8004380:	f7ff fbc8 	bl	8003b14 <USBD_CDC_SetRxBuffer>
 8004384:	4630      	mov	r0, r6
 8004386:	f7ff fbe4 	bl	8003b52 <USBD_CDC_ReceivePacket>
 800438a:	4620      	mov	r0, r4
 800438c:	8829      	ldrh	r1, [r5, #0]
 800438e:	f7fc f9e9 	bl	8000764 <createMessage>
 8004392:	2000      	movs	r0, #0
 8004394:	bd70      	pop	{r4, r5, r6, pc}
 8004396:	bf00      	nop
 8004398:	20000438 	.word	0x20000438

0800439c <CDC_Init_FS>:
 800439c:	b510      	push	{r4, lr}
 800439e:	4c06      	ldr	r4, [pc, #24]	; (80043b8 <CDC_Init_FS+0x1c>)
 80043a0:	2200      	movs	r2, #0
 80043a2:	4620      	mov	r0, r4
 80043a4:	4905      	ldr	r1, [pc, #20]	; (80043bc <CDC_Init_FS+0x20>)
 80043a6:	f7ff fbad 	bl	8003b04 <USBD_CDC_SetTxBuffer>
 80043aa:	4620      	mov	r0, r4
 80043ac:	4904      	ldr	r1, [pc, #16]	; (80043c0 <CDC_Init_FS+0x24>)
 80043ae:	f7ff fbb1 	bl	8003b14 <USBD_CDC_SetRxBuffer>
 80043b2:	2000      	movs	r0, #0
 80043b4:	bd10      	pop	{r4, pc}
 80043b6:	bf00      	nop
 80043b8:	20000438 	.word	0x20000438
 80043bc:	20000ae4 	.word	0x20000ae4
 80043c0:	200006fc 	.word	0x200006fc

080043c4 <CDC_Transmit_FS>:
 80043c4:	b510      	push	{r4, lr}
 80043c6:	4c09      	ldr	r4, [pc, #36]	; (80043ec <CDC_Transmit_FS+0x28>)
 80043c8:	460a      	mov	r2, r1
 80043ca:	f8d4 32b8 	ldr.w	r3, [r4, #696]	; 0x2b8
 80043ce:	f8d3 3214 	ldr.w	r3, [r3, #532]	; 0x214
 80043d2:	b943      	cbnz	r3, 80043e6 <CDC_Transmit_FS+0x22>
 80043d4:	4601      	mov	r1, r0
 80043d6:	4620      	mov	r0, r4
 80043d8:	f7ff fb94 	bl	8003b04 <USBD_CDC_SetTxBuffer>
 80043dc:	4620      	mov	r0, r4
 80043de:	e8bd 4010 	ldmia.w	sp!, {r4, lr}
 80043e2:	f7ff bb9d 	b.w	8003b20 <USBD_CDC_TransmitPacket>
 80043e6:	2001      	movs	r0, #1
 80043e8:	bd10      	pop	{r4, pc}
 80043ea:	bf00      	nop
 80043ec:	20000438 	.word	0x20000438

080043f0 <USBD_FS_DeviceDescriptor>:
 80043f0:	2312      	movs	r3, #18
 80043f2:	4801      	ldr	r0, [pc, #4]	; (80043f8 <USBD_FS_DeviceDescriptor+0x8>)
 80043f4:	800b      	strh	r3, [r1, #0]
 80043f6:	4770      	bx	lr
 80043f8:	2000014c 	.word	0x2000014c

080043fc <USBD_FS_LangIDStrDescriptor>:
 80043fc:	2304      	movs	r3, #4
 80043fe:	4801      	ldr	r0, [pc, #4]	; (8004404 <USBD_FS_LangIDStrDescriptor+0x8>)
 8004400:	800b      	strh	r3, [r1, #0]
 8004402:	4770      	bx	lr
 8004404:	20000160 	.word	0x20000160

08004408 <IntToUnicode>:
 8004408:	2300      	movs	r3, #0
 800440a:	b570      	push	{r4, r5, r6, lr}
 800440c:	461e      	mov	r6, r3
 800440e:	1c4d      	adds	r5, r1, #1
 8004410:	0f04      	lsrs	r4, r0, #28
 8004412:	f1b0 4f20 	cmp.w	r0, #2684354560	; 0xa0000000
 8004416:	bf34      	ite	cc
 8004418:	3430      	addcc	r4, #48	; 0x30
 800441a:	3437      	addcs	r4, #55	; 0x37
 800441c:	f801 4013 	strb.w	r4, [r1, r3, lsl #1]
 8004420:	f805 6013 	strb.w	r6, [r5, r3, lsl #1]
 8004424:	3301      	adds	r3, #1
 8004426:	b2dc      	uxtb	r4, r3
 8004428:	42a2      	cmp	r2, r4
 800442a:	ea4f 1000 	mov.w	r0, r0, lsl #4
 800442e:	d8ef      	bhi.n	8004410 <IntToUnicode+0x8>
 8004430:	bd70      	pop	{r4, r5, r6, pc}
	...

08004434 <USBD_FS_SerialStrDescriptor>:
 8004434:	231a      	movs	r3, #26
 8004436:	b510      	push	{r4, lr}
 8004438:	800b      	strh	r3, [r1, #0]
 800443a:	4b09      	ldr	r3, [pc, #36]	; (8004460 <USBD_FS_SerialStrDescriptor+0x2c>)
 800443c:	6818      	ldr	r0, [r3, #0]
 800443e:	3308      	adds	r3, #8
 8004440:	681b      	ldr	r3, [r3, #0]
 8004442:	18c0      	adds	r0, r0, r3
 8004444:	d00a      	beq.n	800445c <USBD_FS_SerialStrDescriptor+0x28>
 8004446:	4b07      	ldr	r3, [pc, #28]	; (8004464 <USBD_FS_SerialStrDescriptor+0x30>)
 8004448:	2208      	movs	r2, #8
 800444a:	681c      	ldr	r4, [r3, #0]
 800444c:	4906      	ldr	r1, [pc, #24]	; (8004468 <USBD_FS_SerialStrDescriptor+0x34>)
 800444e:	f7ff ffdb 	bl	8004408 <IntToUnicode>
 8004452:	2204      	movs	r2, #4
 8004454:	4620      	mov	r0, r4
 8004456:	4905      	ldr	r1, [pc, #20]	; (800446c <USBD_FS_SerialStrDescriptor+0x38>)
 8004458:	f7ff ffd6 	bl	8004408 <IntToUnicode>
 800445c:	4804      	ldr	r0, [pc, #16]	; (8004470 <USBD_FS_SerialStrDescriptor+0x3c>)
 800445e:	bd10      	pop	{r4, pc}
 8004460:	1ffff7e8 	.word	0x1ffff7e8
 8004464:	1ffff7ec 	.word	0x1ffff7ec
 8004468:	20000166 	.word	0x20000166
 800446c:	20000176 	.word	0x20000176
 8004470:	20000164 	.word	0x20000164

08004474 <USBD_FS_ManufacturerStrDescriptor>:
 8004474:	b510      	push	{r4, lr}
 8004476:	4c04      	ldr	r4, [pc, #16]	; (8004488 <USBD_FS_ManufacturerStrDescriptor+0x14>)
 8004478:	460a      	mov	r2, r1
 800447a:	4804      	ldr	r0, [pc, #16]	; (800448c <USBD_FS_ManufacturerStrDescriptor+0x18>)
 800447c:	4621      	mov	r1, r4
 800447e:	f7ff fede 	bl	800423e <USBD_GetString>
 8004482:	4620      	mov	r0, r4
 8004484:	bd10      	pop	{r4, pc}
 8004486:	bf00      	nop
 8004488:	20000ecc 	.word	0x20000ecc
 800448c:	08004960 	.word	0x08004960

08004490 <USBD_FS_ProductStrDescriptor>:
 8004490:	b510      	push	{r4, lr}
 8004492:	4c04      	ldr	r4, [pc, #16]	; (80044a4 <USBD_FS_ProductStrDescriptor+0x14>)
 8004494:	460a      	mov	r2, r1
 8004496:	4804      	ldr	r0, [pc, #16]	; (80044a8 <USBD_FS_ProductStrDescriptor+0x18>)
 8004498:	4621      	mov	r1, r4
 800449a:	f7ff fed0 	bl	800423e <USBD_GetString>
 800449e:	4620      	mov	r0, r4
 80044a0:	bd10      	pop	{r4, pc}
 80044a2:	bf00      	nop
 80044a4:	20000ecc 	.word	0x20000ecc
 80044a8:	0800496a 	.word	0x0800496a

080044ac <USBD_FS_ConfigStrDescriptor>:
 80044ac:	b510      	push	{r4, lr}
 80044ae:	4c04      	ldr	r4, [pc, #16]	; (80044c0 <USBD_FS_ConfigStrDescriptor+0x14>)
 80044b0:	460a      	mov	r2, r1
 80044b2:	4804      	ldr	r0, [pc, #16]	; (80044c4 <USBD_FS_ConfigStrDescriptor+0x18>)
 80044b4:	4621      	mov	r1, r4
 80044b6:	f7ff fec2 	bl	800423e <USBD_GetString>
 80044ba:	4620      	mov	r0, r4
 80044bc:	bd10      	pop	{r4, pc}
 80044be:	bf00      	nop
 80044c0:	20000ecc 	.word	0x20000ecc
 80044c4:	0800497f 	.word	0x0800497f

080044c8 <USBD_FS_InterfaceStrDescriptor>:
 80044c8:	b510      	push	{r4, lr}
 80044ca:	4c04      	ldr	r4, [pc, #16]	; (80044dc <USBD_FS_InterfaceStrDescriptor+0x14>)
 80044cc:	460a      	mov	r2, r1
 80044ce:	4804      	ldr	r0, [pc, #16]	; (80044e0 <USBD_FS_InterfaceStrDescriptor+0x18>)
 80044d0:	4621      	mov	r1, r4
 80044d2:	f7ff feb4 	bl	800423e <USBD_GetString>
 80044d6:	4620      	mov	r0, r4
 80044d8:	bd10      	pop	{r4, pc}
 80044da:	bf00      	nop
 80044dc:	20000ecc 	.word	0x20000ecc
 80044e0:	0800498a 	.word	0x0800498a

080044e4 <HAL_PCD_MspInit>:
 80044e4:	b507      	push	{r0, r1, r2, lr}
 80044e6:	4b0e      	ldr	r3, [pc, #56]	; (8004520 <HAL_PCD_MspInit+0x3c>)
 80044e8:	6802      	ldr	r2, [r0, #0]
 80044ea:	429a      	cmp	r2, r3
 80044ec:	d115      	bne.n	800451a <HAL_PCD_MspInit+0x36>
 80044ee:	f503 33da 	add.w	r3, r3, #111616	; 0x1b400
 80044f2:	69da      	ldr	r2, [r3, #28]
 80044f4:	2014      	movs	r0, #20
 80044f6:	f442 0200 	orr.w	r2, r2, #8388608	; 0x800000
 80044fa:	61da      	str	r2, [r3, #28]
 80044fc:	2200      	movs	r2, #0
 80044fe:	69db      	ldr	r3, [r3, #28]
 8004500:	4611      	mov	r1, r2
 8004502:	f403 0300 	and.w	r3, r3, #8388608	; 0x800000
 8004506:	9301      	str	r3, [sp, #4]
 8004508:	9b01      	ldr	r3, [sp, #4]
 800450a:	f7fc fb59 	bl	8000bc0 <HAL_NVIC_SetPriority>
 800450e:	2014      	movs	r0, #20
 8004510:	b003      	add	sp, #12
 8004512:	f85d eb04 	ldr.w	lr, [sp], #4
 8004516:	f7fc bb85 	b.w	8000c24 <HAL_NVIC_EnableIRQ>
 800451a:	b003      	add	sp, #12
 800451c:	f85d fb04 	ldr.w	pc, [sp], #4
 8004520:	40005c00 	.word	0x40005c00

08004524 <HAL_PCD_MspDeInit>:
 8004524:	6802      	ldr	r2, [r0, #0]
 8004526:	4b06      	ldr	r3, [pc, #24]	; (8004540 <HAL_PCD_MspDeInit+0x1c>)
 8004528:	429a      	cmp	r2, r3
 800452a:	d107      	bne.n	800453c <HAL_PCD_MspDeInit+0x18>
 800452c:	4a05      	ldr	r2, [pc, #20]	; (8004544 <HAL_PCD_MspDeInit+0x20>)
 800452e:	2014      	movs	r0, #20
 8004530:	69d3      	ldr	r3, [r2, #28]
 8004532:	f423 0300 	bic.w	r3, r3, #8388608	; 0x800000
 8004536:	61d3      	str	r3, [r2, #28]
 8004538:	f7fc bb82 	b.w	8000c40 <HAL_NVIC_DisableIRQ>
 800453c:	4770      	bx	lr
 800453e:	bf00      	nop
 8004540:	40005c00 	.word	0x40005c00
 8004544:	40021000 	.word	0x40021000

08004548 <HAL_PCD_SetupStageCallback>:
 8004548:	f500 712c 	add.w	r1, r0, #688	; 0x2b0
 800454c:	f8d0 02e8 	ldr.w	r0, [r0, #744]	; 0x2e8
 8004550:	f7ff bb67 	b.w	8003c22 <USBD_LL_SetupStage>

08004554 <HAL_PCD_DataOutStageCallback>:
 8004554:	2328      	movs	r3, #40	; 0x28
 8004556:	fb03 0301 	mla	r3, r3, r1, r0
 800455a:	f8d0 02e8 	ldr.w	r0, [r0, #744]	; 0x2e8
 800455e:	f8d3 217c 	ldr.w	r2, [r3, #380]	; 0x17c
 8004562:	f7ff bb8b 	b.w	8003c7c <USBD_LL_DataOutStage>

08004566 <HAL_PCD_DataInStageCallback>:
 8004566:	2328      	movs	r3, #40	; 0x28
 8004568:	fb03 0301 	mla	r3, r3, r1, r0
 800456c:	f8d0 02e8 	ldr.w	r0, [r0, #744]	; 0x2e8
 8004570:	6bda      	ldr	r2, [r3, #60]	; 0x3c
 8004572:	f7ff bbbd 	b.w	8003cf0 <USBD_LL_DataInStage>

08004576 <HAL_PCD_SOFCallback>:
 8004576:	f8d0 02e8 	ldr.w	r0, [r0, #744]	; 0x2e8
 800457a:	f7ff bc51 	b.w	8003e20 <USBD_LL_SOF>

0800457e <HAL_PCD_ResetCallback>:
 800457e:	6883      	ldr	r3, [r0, #8]
 8004580:	b510      	push	{r4, lr}
 8004582:	2b02      	cmp	r3, #2
 8004584:	4604      	mov	r4, r0
 8004586:	d001      	beq.n	800458c <HAL_PCD_ResetCallback+0xe>
 8004588:	f7fc f9e0 	bl	800094c <Error_Handler>
 800458c:	f8d4 02e8 	ldr.w	r0, [r4, #744]	; 0x2e8
 8004590:	2101      	movs	r1, #1
 8004592:	f7ff fc2f 	bl	8003df4 <USBD_LL_SetSpeed>
 8004596:	f8d4 02e8 	ldr.w	r0, [r4, #744]	; 0x2e8
 800459a:	e8bd 4010 	ldmia.w	sp!, {r4, lr}
 800459e:	f7ff bc02 	b.w	8003da6 <USBD_LL_Reset>
	...

080045a4 <HAL_PCD_SuspendCallback>:
 80045a4:	b510      	push	{r4, lr}
 80045a6:	4604      	mov	r4, r0
 80045a8:	f8d0 02e8 	ldr.w	r0, [r0, #744]	; 0x2e8
 80045ac:	f7ff fc25 	bl	8003dfa <USBD_LL_Suspend>
 80045b0:	69a3      	ldr	r3, [r4, #24]
 80045b2:	b123      	cbz	r3, 80045be <HAL_PCD_SuspendCallback+0x1a>
 80045b4:	4a02      	ldr	r2, [pc, #8]	; (80045c0 <HAL_PCD_SuspendCallback+0x1c>)
 80045b6:	6913      	ldr	r3, [r2, #16]
 80045b8:	f043 0306 	orr.w	r3, r3, #6
 80045bc:	6113      	str	r3, [r2, #16]
 80045be:	bd10      	pop	{r4, pc}
 80045c0:	e000ed00 	.word	0xe000ed00

080045c4 <HAL_PCD_ResumeCallback>:
 80045c4:	f8d0 02e8 	ldr.w	r0, [r0, #744]	; 0x2e8
 80045c8:	f7ff bc20 	b.w	8003e0c <USBD_LL_Resume>

080045cc <USBD_LL_Init>:
 80045cc:	2308      	movs	r3, #8
 80045ce:	b510      	push	{r4, lr}
 80045d0:	4a1d      	ldr	r2, [pc, #116]	; (8004648 <USBD_LL_Init+0x7c>)
 80045d2:	4604      	mov	r4, r0
 80045d4:	481d      	ldr	r0, [pc, #116]	; (800464c <USBD_LL_Init+0x80>)
 80045d6:	e9c0 2300 	strd	r2, r3, [r0]
 80045da:	2302      	movs	r3, #2
 80045dc:	6083      	str	r3, [r0, #8]
 80045de:	2300      	movs	r3, #0
 80045e0:	f8c0 42e8 	str.w	r4, [r0, #744]	; 0x2e8
 80045e4:	f8c4 02c0 	str.w	r0, [r4, #704]	; 0x2c0
 80045e8:	e9c0 3306 	strd	r3, r3, [r0, #24]
 80045ec:	6203      	str	r3, [r0, #32]
 80045ee:	f7fc fe50 	bl	8001292 <HAL_PCD_Init>
 80045f2:	b108      	cbz	r0, 80045f8 <USBD_LL_Init+0x2c>
 80045f4:	f7fc f9aa 	bl	800094c <Error_Handler>
 80045f8:	2200      	movs	r2, #0
 80045fa:	2318      	movs	r3, #24
 80045fc:	4611      	mov	r1, r2
 80045fe:	f8d4 02c0 	ldr.w	r0, [r4, #704]	; 0x2c0
 8004602:	f7fd fce9 	bl	8001fd8 <HAL_PCDEx_PMAConfig>
 8004606:	2358      	movs	r3, #88	; 0x58
 8004608:	2200      	movs	r2, #0
 800460a:	2180      	movs	r1, #128	; 0x80
 800460c:	f8d4 02c0 	ldr.w	r0, [r4, #704]	; 0x2c0
 8004610:	f7fd fce2 	bl	8001fd8 <HAL_PCDEx_PMAConfig>
 8004614:	23c0      	movs	r3, #192	; 0xc0
 8004616:	2200      	movs	r2, #0
 8004618:	2181      	movs	r1, #129	; 0x81
 800461a:	f8d4 02c0 	ldr.w	r0, [r4, #704]	; 0x2c0
 800461e:	f7fd fcdb 	bl	8001fd8 <HAL_PCDEx_PMAConfig>
 8004622:	f44f 7388 	mov.w	r3, #272	; 0x110
 8004626:	2200      	movs	r2, #0
 8004628:	2101      	movs	r1, #1
 800462a:	f8d4 02c0 	ldr.w	r0, [r4, #704]	; 0x2c0
 800462e:	f7fd fcd3 	bl	8001fd8 <HAL_PCDEx_PMAConfig>
 8004632:	f44f 7380 	mov.w	r3, #256	; 0x100
 8004636:	2200      	movs	r2, #0
 8004638:	2182      	movs	r1, #130	; 0x82
 800463a:	f8d4 02c0 	ldr.w	r0, [r4, #704]	; 0x2c0
 800463e:	f7fd fccb 	bl	8001fd8 <HAL_PCDEx_PMAConfig>
 8004642:	2000      	movs	r0, #0
 8004644:	bd10      	pop	{r4, pc}
 8004646:	bf00      	nop
 8004648:	40005c00 	.word	0x40005c00
 800464c:	200010cc 	.word	0x200010cc

08004650 <USBD_LL_DeInit>:
 8004650:	b508      	push	{r3, lr}
 8004652:	f8d0 02c0 	ldr.w	r0, [r0, #704]	; 0x2c0
 8004656:	f7fc fe95 	bl	8001384 <HAL_PCD_DeInit>
 800465a:	2803      	cmp	r0, #3
 800465c:	bf96      	itet	ls
 800465e:	4b02      	ldrls	r3, [pc, #8]	; (8004668 <USBD_LL_DeInit+0x18>)
 8004660:	2002      	movhi	r0, #2
 8004662:	5c18      	ldrbls	r0, [r3, r0]
 8004664:	bd08      	pop	{r3, pc}
 8004666:	bf00      	nop
 8004668:	08004998 	.word	0x08004998

0800466c <USBD_LL_Start>:
 800466c:	b508      	push	{r3, lr}
 800466e:	f8d0 02c0 	ldr.w	r0, [r0, #704]	; 0x2c0
 8004672:	f7fc fe9c 	bl	80013ae <HAL_PCD_Start>
 8004676:	2803      	cmp	r0, #3
 8004678:	bf96      	itet	ls
 800467a:	4b02      	ldrls	r3, [pc, #8]	; (8004684 <USBD_LL_Start+0x18>)
 800467c:	2002      	movhi	r0, #2
 800467e:	5c18      	ldrbls	r0, [r3, r0]
 8004680:	bd08      	pop	{r3, pc}
 8004682:	bf00      	nop
 8004684:	08004998 	.word	0x08004998

08004688 <USBD_LL_Stop>:
 8004688:	b508      	push	{r3, lr}
 800468a:	f8d0 02c0 	ldr.w	r0, [r0, #704]	; 0x2c0
 800468e:	f7fc fea7 	bl	80013e0 <HAL_PCD_Stop>
 8004692:	2803      	cmp	r0, #3
 8004694:	bf96      	itet	ls
 8004696:	4b02      	ldrls	r3, [pc, #8]	; (80046a0 <USBD_LL_Stop+0x18>)
 8004698:	2002      	movhi	r0, #2
 800469a:	5c18      	ldrbls	r0, [r3, r0]
 800469c:	bd08      	pop	{r3, pc}
 800469e:	bf00      	nop
 80046a0:	08004998 	.word	0x08004998

080046a4 <USBD_LL_OpenEP>:
 80046a4:	b510      	push	{r4, lr}
 80046a6:	4614      	mov	r4, r2
 80046a8:	f8d0 02c0 	ldr.w	r0, [r0, #704]	; 0x2c0
 80046ac:	461a      	mov	r2, r3
 80046ae:	4623      	mov	r3, r4
 80046b0:	f7fd fb98 	bl	8001de4 <HAL_PCD_EP_Open>
 80046b4:	2803      	cmp	r0, #3
 80046b6:	bf96      	itet	ls
 80046b8:	4b01      	ldrls	r3, [pc, #4]	; (80046c0 <USBD_LL_OpenEP+0x1c>)
 80046ba:	2002      	movhi	r0, #2
 80046bc:	5c18      	ldrbls	r0, [r3, r0]
 80046be:	bd10      	pop	{r4, pc}
 80046c0:	08004998 	.word	0x08004998

080046c4 <USBD_LL_CloseEP>:
 80046c4:	b508      	push	{r3, lr}
 80046c6:	f8d0 02c0 	ldr.w	r0, [r0, #704]	; 0x2c0
 80046ca:	f7fd fbbd 	bl	8001e48 <HAL_PCD_EP_Close>
 80046ce:	2803      	cmp	r0, #3
 80046d0:	bf96      	itet	ls
 80046d2:	4b02      	ldrls	r3, [pc, #8]	; (80046dc <USBD_LL_CloseEP+0x18>)
 80046d4:	2002      	movhi	r0, #2
 80046d6:	5c18      	ldrbls	r0, [r3, r0]
 80046d8:	bd08      	pop	{r3, pc}
 80046da:	bf00      	nop
 80046dc:	08004998 	.word	0x08004998

080046e0 <USBD_LL_StallEP>:
 80046e0:	b508      	push	{r3, lr}
 80046e2:	f8d0 02c0 	ldr.w	r0, [r0, #704]	; 0x2c0
 80046e6:	f7fd fc11 	bl	8001f0c <HAL_PCD_EP_SetStall>
 80046ea:	2803      	cmp	r0, #3
 80046ec:	bf96      	itet	ls
 80046ee:	4b02      	ldrls	r3, [pc, #8]	; (80046f8 <USBD_LL_StallEP+0x18>)
 80046f0:	2002      	movhi	r0, #2
 80046f2:	5c18      	ldrbls	r0, [r3, r0]
 80046f4:	bd08      	pop	{r3, pc}
 80046f6:	bf00      	nop
 80046f8:	08004998 	.word	0x08004998

080046fc <USBD_LL_ClearStallEP>:
 80046fc:	b508      	push	{r3, lr}
 80046fe:	f8d0 02c0 	ldr.w	r0, [r0, #704]	; 0x2c0
 8004702:	f7fd fc37 	bl	8001f74 <HAL_PCD_EP_ClrStall>
 8004706:	2803      	cmp	r0, #3
 8004708:	bf96      	itet	ls
 800470a:	4b02      	ldrls	r3, [pc, #8]	; (8004714 <USBD_LL_ClearStallEP+0x18>)
 800470c:	2002      	movhi	r0, #2
 800470e:	5c18      	ldrbls	r0, [r3, r0]
 8004710:	bd08      	pop	{r3, pc}
 8004712:	bf00      	nop
 8004714:	08004998 	.word	0x08004998

08004718 <USBD_LL_IsStallEP>:
 8004718:	2328      	movs	r3, #40	; 0x28
 800471a:	f011 0f80 	tst.w	r1, #128	; 0x80
 800471e:	f8d0 22c0 	ldr.w	r2, [r0, #704]	; 0x2c0
 8004722:	bf1b      	ittet	ne
 8004724:	f001 017f 	andne.w	r1, r1, #127	; 0x7f
 8004728:	fb01 3103 	mlane	r1, r1, r3, r3
 800472c:	fb03 2101 	mlaeq	r1, r3, r1, r2
 8004730:	1889      	addne	r1, r1, r2
 8004732:	bf14      	ite	ne
 8004734:	7888      	ldrbne	r0, [r1, #2]
 8004736:	f891 016a 	ldrbeq.w	r0, [r1, #362]	; 0x16a
 800473a:	4770      	bx	lr

0800473c <USBD_LL_SetUSBAddress>:
 800473c:	b508      	push	{r3, lr}
 800473e:	f8d0 02c0 	ldr.w	r0, [r0, #704]	; 0x2c0
 8004742:	f7fc fe66 	bl	8001412 <HAL_PCD_SetAddress>
 8004746:	2803      	cmp	r0, #3
 8004748:	bf96      	itet	ls
 800474a:	4b02      	ldrls	r3, [pc, #8]	; (8004754 <USBD_LL_SetUSBAddress+0x18>)
 800474c:	2002      	movhi	r0, #2
 800474e:	5c18      	ldrbls	r0, [r3, r0]
 8004750:	bd08      	pop	{r3, pc}
 8004752:	bf00      	nop
 8004754:	08004998 	.word	0x08004998

08004758 <USBD_LL_Transmit>:
 8004758:	b508      	push	{r3, lr}
 800475a:	f8d0 02c0 	ldr.w	r0, [r0, #704]	; 0x2c0
 800475e:	f7fd fbbb 	bl	8001ed8 <HAL_PCD_EP_Transmit>
 8004762:	2803      	cmp	r0, #3
 8004764:	bf96      	itet	ls
 8004766:	4b02      	ldrls	r3, [pc, #8]	; (8004770 <USBD_LL_Transmit+0x18>)
 8004768:	2002      	movhi	r0, #2
 800476a:	5c18      	ldrbls	r0, [r3, r0]
 800476c:	bd08      	pop	{r3, pc}
 800476e:	bf00      	nop
 8004770:	08004998 	.word	0x08004998

08004774 <USBD_LL_PrepareReceive>:
 8004774:	b508      	push	{r3, lr}
 8004776:	f8d0 02c0 	ldr.w	r0, [r0, #704]	; 0x2c0
 800477a:	f7fd fb8e 	bl	8001e9a <HAL_PCD_EP_Receive>
 800477e:	2803      	cmp	r0, #3
 8004780:	bf96      	itet	ls
 8004782:	4b02      	ldrls	r3, [pc, #8]	; (800478c <USBD_LL_PrepareReceive+0x18>)
 8004784:	2002      	movhi	r0, #2
 8004786:	5c18      	ldrbls	r0, [r3, r0]
 8004788:	bd08      	pop	{r3, pc}
 800478a:	bf00      	nop
 800478c:	08004998 	.word	0x08004998

08004790 <USBD_LL_GetRxDataSize>:
 8004790:	f8d0 02c0 	ldr.w	r0, [r0, #704]	; 0x2c0
 8004794:	f7fd bb98 	b.w	8001ec8 <HAL_PCD_EP_GetRxCount>

08004798 <USBD_static_malloc>:
 8004798:	4800      	ldr	r0, [pc, #0]	; (800479c <USBD_static_malloc+0x4>)
 800479a:	4770      	bx	lr
 800479c:	200001a4 	.word	0x200001a4

080047a0 <USBD_static_free>:
 80047a0:	4770      	bx	lr

080047a2 <HAL_PCDEx_SetConnectionState>:
 80047a2:	4770      	bx	lr

080047a4 <__libc_init_array>:
 80047a4:	b570      	push	{r4, r5, r6, lr}
 80047a6:	2600      	movs	r6, #0
 80047a8:	4d0c      	ldr	r5, [pc, #48]	; (80047dc <__libc_init_array+0x38>)
 80047aa:	4c0d      	ldr	r4, [pc, #52]	; (80047e0 <__libc_init_array+0x3c>)
 80047ac:	1b64      	subs	r4, r4, r5
 80047ae:	10a4      	asrs	r4, r4, #2
 80047b0:	42a6      	cmp	r6, r4
 80047b2:	d109      	bne.n	80047c8 <__libc_init_array+0x24>
 80047b4:	f000 f822 	bl	80047fc <_init>
 80047b8:	2600      	movs	r6, #0
 80047ba:	4d0a      	ldr	r5, [pc, #40]	; (80047e4 <__libc_init_array+0x40>)
 80047bc:	4c0a      	ldr	r4, [pc, #40]	; (80047e8 <__libc_init_array+0x44>)
 80047be:	1b64      	subs	r4, r4, r5
 80047c0:	10a4      	asrs	r4, r4, #2
 80047c2:	42a6      	cmp	r6, r4
 80047c4:	d105      	bne.n	80047d2 <__libc_init_array+0x2e>
 80047c6:	bd70      	pop	{r4, r5, r6, pc}
 80047c8:	f855 3b04 	ldr.w	r3, [r5], #4
 80047cc:	4798      	blx	r3
 80047ce:	3601      	adds	r6, #1
 80047d0:	e7ee      	b.n	80047b0 <__libc_init_array+0xc>
 80047d2:	f855 3b04 	ldr.w	r3, [r5], #4
 80047d6:	4798      	blx	r3
 80047d8:	3601      	adds	r6, #1
 80047da:	e7f2      	b.n	80047c2 <__libc_init_array+0x1e>
 80047dc:	0800499c 	.word	0x0800499c
 80047e0:	0800499c 	.word	0x0800499c
 80047e4:	0800499c 	.word	0x0800499c
 80047e8:	080049a0 	.word	0x080049a0

080047ec <memset>:
 80047ec:	4603      	mov	r3, r0
 80047ee:	4402      	add	r2, r0
 80047f0:	4293      	cmp	r3, r2
 80047f2:	d100      	bne.n	80047f6 <memset+0xa>
 80047f4:	4770      	bx	lr
 80047f6:	f803 1b01 	strb.w	r1, [r3], #1
 80047fa:	e7f9      	b.n	80047f0 <memset+0x4>

080047fc <_init>:
 80047fc:	b5f8      	push	{r3, r4, r5, r6, r7, lr}
 80047fe:	bf00      	nop
 8004800:	bcf8      	pop	{r3, r4, r5, r6, r7}
 8004802:	bc08      	pop	{r3}
 8004804:	469e      	mov	lr, r3
 8004806:	4770      	bx	lr

08004808 <_fini>:
 8004808:	b5f8      	push	{r3, r4, r5, r6, r7, lr}
 800480a:	bf00      	nop
 800480c:	bcf8      	pop	{r3, r4, r5, r6, r7}
 800480e:	bc08      	pop	{r3}
 8004810:	469e      	mov	lr, r3
 8004812:	4770      	bx	lr
